Archive member included to satisfy reference by file (symbol)

/Users/spinal/devkitPro/libctru/lib/libctru.a(gfx.o)
                              Display.o (gfxSetScreenFormat)
/Users/spinal/devkitPro/libctru/lib/libctru.a(srv.o)
                              main.o (srvExit)
/Users/spinal/devkitPro/libctru/lib/libctru.a(apt.o)
                              main.o (aptInit)
/Users/spinal/devkitPro/libctru/lib/libctru.a(fs.o)
                              main.o (fsInit)
/Users/spinal/devkitPro/libctru/lib/libctru.a(gsp.o)
                              /Users/spinal/devkitPro/libctru/lib/libctru.a(gfx.o) (gspInit)
/Users/spinal/devkitPro/libctru/lib/libctru.a(gx.o)
                              /Users/spinal/devkitPro/libctru/lib/libctru.a(gfx.o) (gxCmdBuf)
/Users/spinal/devkitPro/libctru/lib/libctru.a(hid.o)
                              main.o (hidExit)
/Users/spinal/devkitPro/libctru/lib/libctru.a(irrst.o)
                              /Users/spinal/devkitPro/libctru/lib/libctru.a(hid.o) (irrstScanInput)
/Users/spinal/devkitPro/libctru/lib/libctru.a(initArgv.o)
                              /Users/spinal/devkitPro/devkitARM/bin/../lib/gcc/arm-none-eabi/4.9.2/../../../../arm-none-eabi/lib/armv6k/fpu/3dsx_crt0.o (__system_argc)
/Users/spinal/devkitPro/libctru/lib/libctru.a(initSystem.o)
                              /Users/spinal/devkitPro/libctru/lib/libctru.a(apt.o) (__system_retAddr)
/Users/spinal/devkitPro/libctru/lib/libctru.a(svc.o)
                              /Users/spinal/devkitPro/libctru/lib/libctru.a(apt.o) (svcCreateThread)
/Users/spinal/devkitPro/libctru/lib/libctru.a(stack_adjust.o)
                              /Users/spinal/devkitPro/devkitARM/bin/../lib/gcc/arm-none-eabi/4.9.2/../../../../arm-none-eabi/lib/armv6k/fpu/3dsx_crt0.o (initSystem)
/Users/spinal/devkitPro/libctru/lib/libctru.a(linear.o)
                              /Users/spinal/devkitPro/libctru/lib/libctru.a(gfx.o) (linearAlloc)
/Users/spinal/devkitPro/libctru/lib/libctru.a(mem_pool.o)
                              /Users/spinal/devkitPro/libctru/lib/libctru.a(linear.o) (MemPool::Allocate(MemChunk&, unsigned long, int))
/Users/spinal/devkitPro/libctru/lib/libctru.a(vram.o)
                              /Users/spinal/devkitPro/libctru/lib/libctru.a(gfx.o) (vramAlloc)
/Users/spinal/devkitPro/libctru/lib/libctru.a(os.o)
                              /Users/spinal/devkitPro/libctru/lib/libctru.a(initSystem.o) (__libctru_gtod)
/Users/spinal/devkitPro/libctru/lib/libctru.a(rbtree_find.o)
                              /Users/spinal/devkitPro/libctru/lib/libctru.a(linear.o) (rbtree_find)
/Users/spinal/devkitPro/libctru/lib/libctru.a(rbtree_init.o)
                              /Users/spinal/devkitPro/libctru/lib/libctru.a(linear.o) (rbtree_init)
/Users/spinal/devkitPro/libctru/lib/libctru.a(rbtree_insert.o)
                              /Users/spinal/devkitPro/libctru/lib/libctru.a(linear.o) (rbtree_insert)
/Users/spinal/devkitPro/libctru/lib/libctru.a(rbtree_remove.o)
                              /Users/spinal/devkitPro/libctru/lib/libctru.a(linear.o) (rbtree_remove)
/Users/spinal/devkitPro/libctru/lib/libctru.a(rbtree_rotate.o)
                              /Users/spinal/devkitPro/libctru/lib/libctru.a(rbtree_insert.o) (rbtree_rotate)
/Users/spinal/devkitPro/libctru/lib/libctru.a(allocateHeaps.o)
                              /Users/spinal/devkitPro/libctru/lib/libctru.a(initSystem.o) (__system_allocateHeaps)
/Users/spinal/devkitPro/libctru/lib/libctru.a(appExit.o)
                              /Users/spinal/devkitPro/libctru/lib/libctru.a(stack_adjust.o) (__appExit)
/Users/spinal/devkitPro/libctru/lib/libctru.a(appInit.o)
                              /Users/spinal/devkitPro/libctru/lib/libctru.a(stack_adjust.o) (__appInit)
/Users/spinal/devkitPro/libctru/lib/libctru.a(ctru_exit.o)
                              /Users/spinal/devkitPro/libctru/lib/libctru.a(stack_adjust.o) (__libctru_exit)
/Users/spinal/devkitPro/libctru/lib/libctru.a(sdmc_dev.o)
                              /Users/spinal/devkitPro/libctru/lib/libctru.a(appInit.o) (sdmcInit)
/Users/spinal/devkitPro/libctru/lib/libctru.a(rbtree_iterator.o)
                              /Users/spinal/devkitPro/libctru/lib/libctru.a(rbtree_remove.o) (rbtree_node_next)
/Users/spinal/devkitPro/libctru/lib/libctru.a(decode_utf8.o)
                              /Users/spinal/devkitPro/libctru/lib/libctru.a(sdmc_dev.o) (decode_utf8)
/Users/spinal/devkitPro/libctru/lib/libctru.a(utf16_to_utf8.o)
                              /Users/spinal/devkitPro/libctru/lib/libctru.a(sdmc_dev.o) (utf16_to_utf8)
/Users/spinal/devkitPro/libctru/lib/libctru.a(utf8_to_utf16.o)
                              /Users/spinal/devkitPro/libctru/lib/libctru.a(sdmc_dev.o) (utf8_to_utf16)
/Users/spinal/devkitPro/libctru/lib/libctru.a(decode_utf16.o)
                              /Users/spinal/devkitPro/libctru/lib/libctru.a(utf16_to_utf8.o) (decode_utf16)
/Users/spinal/devkitPro/libctru/lib/libctru.a(encode_utf16.o)
                              /Users/spinal/devkitPro/libctru/lib/libctru.a(utf8_to_utf16.o) (encode_utf16)
/Users/spinal/devkitPro/libctru/lib/libctru.a(encode_utf8.o)
                              /Users/spinal/devkitPro/libctru/lib/libctru.a(utf16_to_utf8.o) (encode_utf8)
/Users/spinal/devkitPro/devkitARM/bin/../lib/gcc/arm-none-eabi/4.9.2/../../../../arm-none-eabi/lib/armv6k/fpu/libstdc++.a(del_op.o)
                              1541d64.o (operator delete(void*))
/Users/spinal/devkitPro/devkitARM/bin/../lib/gcc/arm-none-eabi/4.9.2/../../../../arm-none-eabi/lib/armv6k/fpu/libstdc++.a(del_opv.o)
                              1541d64.o (operator delete[](void*))
/Users/spinal/devkitPro/devkitARM/bin/../lib/gcc/arm-none-eabi/4.9.2/../../../../arm-none-eabi/lib/armv6k/fpu/libstdc++.a(guard.o)
                              main.o (__cxa_guard_acquire)
/Users/spinal/devkitPro/devkitARM/bin/../lib/gcc/arm-none-eabi/4.9.2/../../../../arm-none-eabi/lib/armv6k/fpu/libstdc++.a(guard_error.o)
                              /Users/spinal/devkitPro/devkitARM/bin/../lib/gcc/arm-none-eabi/4.9.2/../../../../arm-none-eabi/lib/armv6k/fpu/libstdc++.a(guard.o) (__gnu_cxx::recursive_init_error::~recursive_init_error())
/Users/spinal/devkitPro/devkitARM/bin/../lib/gcc/arm-none-eabi/4.9.2/../../../../arm-none-eabi/lib/armv6k/fpu/libstdc++.a(new_op.o)
                              1541d64.o (operator new(unsigned int))
/Users/spinal/devkitPro/devkitARM/bin/../lib/gcc/arm-none-eabi/4.9.2/../../../../arm-none-eabi/lib/armv6k/fpu/libstdc++.a(new_opv.o)
                              1541d64.o (operator new[](unsigned int))
/Users/spinal/devkitPro/devkitARM/bin/../lib/gcc/arm-none-eabi/4.9.2/../../../../arm-none-eabi/lib/armv6k/fpu/libstdc++.a(pure.o)
                              CIA.o (__cxa_pure_virtual)
/Users/spinal/devkitPro/devkitARM/bin/../lib/gcc/arm-none-eabi/4.9.2/../../../../arm-none-eabi/lib/armv6k/fpu/libstdc++.a(si_class_type_info.o)
                              /Users/spinal/devkitPro/devkitARM/bin/../lib/gcc/arm-none-eabi/4.9.2/../../../../arm-none-eabi/lib/armv6k/fpu/libstdc++.a(guard_error.o) (vtable for __cxxabiv1::__si_class_type_info)
/Users/spinal/devkitPro/devkitARM/bin/../lib/gcc/arm-none-eabi/4.9.2/../../../../arm-none-eabi/lib/armv6k/fpu/libstdc++.a(tinfo.o)
                              /Users/spinal/devkitPro/devkitARM/bin/../lib/gcc/arm-none-eabi/4.9.2/../../../../arm-none-eabi/lib/armv6k/fpu/libstdc++.a(si_class_type_info.o) (std::type_info::__is_pointer_p() const)
/Users/spinal/devkitPro/devkitARM/bin/../lib/gcc/arm-none-eabi/4.9.2/../../../../arm-none-eabi/lib/armv6k/fpu/libstdc++.a(bad_alloc.o)
                              /Users/spinal/devkitPro/devkitARM/bin/../lib/gcc/arm-none-eabi/4.9.2/../../../../arm-none-eabi/lib/armv6k/fpu/libstdc++.a(new_op.o) (std::bad_alloc::~bad_alloc())
/Users/spinal/devkitPro/devkitARM/bin/../lib/gcc/arm-none-eabi/4.9.2/../../../../arm-none-eabi/lib/armv6k/fpu/libstdc++.a(class_type_info.o)
                              /Users/spinal/devkitPro/devkitARM/bin/../lib/gcc/arm-none-eabi/4.9.2/../../../../arm-none-eabi/lib/armv6k/fpu/libstdc++.a(si_class_type_info.o) (__cxxabiv1::__class_type_info::__do_upcast(__cxxabiv1::__class_type_info const*, void**) const)
/Users/spinal/devkitPro/devkitARM/bin/../lib/gcc/arm-none-eabi/4.9.2/../../../../arm-none-eabi/lib/armv6k/fpu/libstdc++.a(eh_alloc.o)
                              /Users/spinal/devkitPro/devkitARM/bin/../lib/gcc/arm-none-eabi/4.9.2/../../../../arm-none-eabi/lib/armv6k/fpu/libstdc++.a(guard.o) (__cxa_allocate_exception)
/Users/spinal/devkitPro/devkitARM/bin/../lib/gcc/arm-none-eabi/4.9.2/../../../../arm-none-eabi/lib/armv6k/fpu/libstdc++.a(eh_arm.o)
                              /Users/spinal/devkitPro/devkitARM/bin/../lib/gcc/arm-none-eabi/4.9.2/../../../../arm-none-eabi/lib/armv6k/fpu/libstdc++.a(new_opv.o) (__cxa_end_cleanup)
/Users/spinal/devkitPro/devkitARM/bin/../lib/gcc/arm-none-eabi/4.9.2/../../../../arm-none-eabi/lib/armv6k/fpu/libstdc++.a(eh_call.o)
                              /Users/spinal/devkitPro/devkitARM/bin/../lib/gcc/arm-none-eabi/4.9.2/../../../../arm-none-eabi/lib/armv6k/fpu/libstdc++.a(new_opv.o) (__cxa_call_unexpected)
/Users/spinal/devkitPro/devkitARM/bin/../lib/gcc/arm-none-eabi/4.9.2/../../../../arm-none-eabi/lib/armv6k/fpu/libstdc++.a(eh_catch.o)
                              /Users/spinal/devkitPro/devkitARM/bin/../lib/gcc/arm-none-eabi/4.9.2/../../../../arm-none-eabi/lib/armv6k/fpu/libstdc++.a(eh_call.o) (__cxa_begin_catch)
/Users/spinal/devkitPro/devkitARM/bin/../lib/gcc/arm-none-eabi/4.9.2/../../../../arm-none-eabi/lib/armv6k/fpu/libstdc++.a(eh_exception.o)
                              /Users/spinal/devkitPro/devkitARM/bin/../lib/gcc/arm-none-eabi/4.9.2/../../../../arm-none-eabi/lib/armv6k/fpu/libstdc++.a(guard_error.o) (std::exception::~exception())
/Users/spinal/devkitPro/devkitARM/bin/../lib/gcc/arm-none-eabi/4.9.2/../../../../arm-none-eabi/lib/armv6k/fpu/libstdc++.a(eh_globals.o)
                              /Users/spinal/devkitPro/devkitARM/bin/../lib/gcc/arm-none-eabi/4.9.2/../../../../arm-none-eabi/lib/armv6k/fpu/libstdc++.a(eh_call.o) (__cxa_get_globals_fast)
/Users/spinal/devkitPro/devkitARM/bin/../lib/gcc/arm-none-eabi/4.9.2/../../../../arm-none-eabi/lib/armv6k/fpu/libstdc++.a(eh_personality.o)
                              /Users/spinal/devkitPro/devkitARM/bin/../lib/gcc/arm-none-eabi/4.9.2/../../../../arm-none-eabi/lib/armv6k/fpu/libstdc++.a(new_opv.o) (__gxx_personality_v0)
/Users/spinal/devkitPro/devkitARM/bin/../lib/gcc/arm-none-eabi/4.9.2/../../../../arm-none-eabi/lib/armv6k/fpu/libstdc++.a(eh_terminate.o)
                              /Users/spinal/devkitPro/devkitARM/bin/../lib/gcc/arm-none-eabi/4.9.2/../../../../arm-none-eabi/lib/armv6k/fpu/libstdc++.a(eh_call.o) (__cxxabiv1::__terminate(void (*)()))
/Users/spinal/devkitPro/devkitARM/bin/../lib/gcc/arm-none-eabi/4.9.2/../../../../arm-none-eabi/lib/armv6k/fpu/libstdc++.a(eh_throw.o)
                              /Users/spinal/devkitPro/devkitARM/bin/../lib/gcc/arm-none-eabi/4.9.2/../../../../arm-none-eabi/lib/armv6k/fpu/libstdc++.a(guard.o) (__cxa_throw)
/Users/spinal/devkitPro/devkitARM/bin/../lib/gcc/arm-none-eabi/4.9.2/../../../../arm-none-eabi/lib/armv6k/fpu/libstdc++.a(eh_unex_handler.o)
                              /Users/spinal/devkitPro/devkitARM/bin/../lib/gcc/arm-none-eabi/4.9.2/../../../../arm-none-eabi/lib/armv6k/fpu/libstdc++.a(eh_terminate.o) (__cxxabiv1::__unexpected_handler)
/Users/spinal/devkitPro/devkitARM/bin/../lib/gcc/arm-none-eabi/4.9.2/../../../../arm-none-eabi/lib/armv6k/fpu/libstdc++.a(new_handler.o)
                              /Users/spinal/devkitPro/devkitARM/bin/../lib/gcc/arm-none-eabi/4.9.2/../../../../arm-none-eabi/lib/armv6k/fpu/libstdc++.a(new_op.o) (std::get_new_handler())
/Users/spinal/devkitPro/devkitARM/bin/../lib/gcc/arm-none-eabi/4.9.2/../../../../arm-none-eabi/lib/armv6k/fpu/libstdc++.a(eh_term_handler.o)
                              /Users/spinal/devkitPro/devkitARM/bin/../lib/gcc/arm-none-eabi/4.9.2/../../../../arm-none-eabi/lib/armv6k/fpu/libstdc++.a(eh_terminate.o) (__cxxabiv1::__terminate_handler)
/Users/spinal/devkitPro/devkitARM/bin/../lib/gcc/arm-none-eabi/4.9.2/../../../../arm-none-eabi/lib/armv6k/fpu/libstdc++.a(vterminate.o)
                              /Users/spinal/devkitPro/devkitARM/bin/../lib/gcc/arm-none-eabi/4.9.2/../../../../arm-none-eabi/lib/armv6k/fpu/libstdc++.a(eh_term_handler.o) (__gnu_cxx::__verbose_terminate_handler())
/Users/spinal/devkitPro/devkitARM/bin/../lib/gcc/arm-none-eabi/4.9.2/../../../../arm-none-eabi/lib/armv6k/fpu/libstdc++.a(cp-demangle.o)
                              /Users/spinal/devkitPro/devkitARM/bin/../lib/gcc/arm-none-eabi/4.9.2/../../../../arm-none-eabi/lib/armv6k/fpu/libstdc++.a(vterminate.o) (__cxa_demangle)
/Users/spinal/devkitPro/devkitARM/bin/../lib/gcc/arm-none-eabi/4.9.2/../../../../arm-none-eabi/lib/armv6k/fpu/libstdc++.a(eh_type.o)
                              /Users/spinal/devkitPro/devkitARM/bin/../lib/gcc/arm-none-eabi/4.9.2/../../../../arm-none-eabi/lib/armv6k/fpu/libstdc++.a(vterminate.o) (__cxa_current_exception_type)
/Users/spinal/devkitPro/devkitARM/bin/../lib/gcc/arm-none-eabi/4.9.2/../../../../arm-none-eabi/lib/armv6k/fpu/libm.a(lib_a-s_cos.o)
                              SID.o (cos)
/Users/spinal/devkitPro/devkitARM/bin/../lib/gcc/arm-none-eabi/4.9.2/../../../../arm-none-eabi/lib/armv6k/fpu/libm.a(lib_a-s_sin.o)
                              SID.o (sin)
/Users/spinal/devkitPro/devkitARM/bin/../lib/gcc/arm-none-eabi/4.9.2/../../../../arm-none-eabi/lib/armv6k/fpu/libm.a(lib_a-e_rem_pio2.o)
                              /Users/spinal/devkitPro/devkitARM/bin/../lib/gcc/arm-none-eabi/4.9.2/../../../../arm-none-eabi/lib/armv6k/fpu/libm.a(lib_a-s_cos.o) (__ieee754_rem_pio2)
/Users/spinal/devkitPro/devkitARM/bin/../lib/gcc/arm-none-eabi/4.9.2/../../../../arm-none-eabi/lib/armv6k/fpu/libm.a(lib_a-k_cos.o)
                              /Users/spinal/devkitPro/devkitARM/bin/../lib/gcc/arm-none-eabi/4.9.2/../../../../arm-none-eabi/lib/armv6k/fpu/libm.a(lib_a-s_cos.o) (__kernel_cos)
/Users/spinal/devkitPro/devkitARM/bin/../lib/gcc/arm-none-eabi/4.9.2/../../../../arm-none-eabi/lib/armv6k/fpu/libm.a(lib_a-k_rem_pio2.o)
                              /Users/spinal/devkitPro/devkitARM/bin/../lib/gcc/arm-none-eabi/4.9.2/../../../../arm-none-eabi/lib/armv6k/fpu/libm.a(lib_a-e_rem_pio2.o) (__kernel_rem_pio2)
/Users/spinal/devkitPro/devkitARM/bin/../lib/gcc/arm-none-eabi/4.9.2/../../../../arm-none-eabi/lib/armv6k/fpu/libm.a(lib_a-k_sin.o)
                              /Users/spinal/devkitPro/devkitARM/bin/../lib/gcc/arm-none-eabi/4.9.2/../../../../arm-none-eabi/lib/armv6k/fpu/libm.a(lib_a-s_cos.o) (__kernel_sin)
/Users/spinal/devkitPro/devkitARM/bin/../lib/gcc/arm-none-eabi/4.9.2/../../../../arm-none-eabi/lib/armv6k/fpu/libm.a(lib_a-s_fabs.o)
                              /Users/spinal/devkitPro/devkitARM/bin/../lib/gcc/arm-none-eabi/4.9.2/../../../../arm-none-eabi/lib/armv6k/fpu/libm.a(lib_a-e_rem_pio2.o) (fabs)
/Users/spinal/devkitPro/devkitARM/bin/../lib/gcc/arm-none-eabi/4.9.2/../../../../arm-none-eabi/lib/armv6k/fpu/libm.a(lib_a-s_floor.o)
                              /Users/spinal/devkitPro/devkitARM/bin/../lib/gcc/arm-none-eabi/4.9.2/../../../../arm-none-eabi/lib/armv6k/fpu/libm.a(lib_a-k_rem_pio2.o) (floor)
/Users/spinal/devkitPro/devkitARM/bin/../lib/gcc/arm-none-eabi/4.9.2/../../../../arm-none-eabi/lib/armv6k/fpu/libm.a(lib_a-s_scalbn.o)
                              /Users/spinal/devkitPro/devkitARM/bin/../lib/gcc/arm-none-eabi/4.9.2/../../../../arm-none-eabi/lib/armv6k/fpu/libm.a(lib_a-k_rem_pio2.o) (scalbn)
/Users/spinal/devkitPro/devkitARM/bin/../lib/gcc/arm-none-eabi/4.9.2/../../../../arm-none-eabi/lib/armv6k/fpu/libm.a(lib_a-s_copysign.o)
                              /Users/spinal/devkitPro/devkitARM/bin/../lib/gcc/arm-none-eabi/4.9.2/../../../../arm-none-eabi/lib/armv6k/fpu/libm.a(lib_a-s_scalbn.o) (copysign)
/Users/spinal/devkitPro/devkitARM/bin/../lib/gcc/arm-none-eabi/4.9.2/armv6k/fpu/libgcc.a(_udivsi3.o)
                              SAM.o (__aeabi_uidiv)
/Users/spinal/devkitPro/devkitARM/bin/../lib/gcc/arm-none-eabi/4.9.2/armv6k/fpu/libgcc.a(_dvmd_tls.o)
                              /Users/spinal/devkitPro/devkitARM/bin/../lib/gcc/arm-none-eabi/4.9.2/armv6k/fpu/libgcc.a(_udivsi3.o) (__aeabi_idiv0)
/Users/spinal/devkitPro/devkitARM/bin/../lib/gcc/arm-none-eabi/4.9.2/armv6k/fpu/libgcc.a(unwind-arm.o)
                              /Users/spinal/devkitPro/devkitARM/bin/../lib/gcc/arm-none-eabi/4.9.2/../../../../arm-none-eabi/lib/armv6k/fpu/libstdc++.a(new_op.o) (__aeabi_unwind_cpp_pr0)
/Users/spinal/devkitPro/devkitARM/bin/../lib/gcc/arm-none-eabi/4.9.2/armv6k/fpu/libgcc.a(libunwind.o)
                              /Users/spinal/devkitPro/devkitARM/bin/../lib/gcc/arm-none-eabi/4.9.2/armv6k/fpu/libgcc.a(unwind-arm.o) (restore_core_regs)
/Users/spinal/devkitPro/devkitARM/bin/../lib/gcc/arm-none-eabi/4.9.2/armv6k/fpu/libgcc.a(pr-support.o)
                              /Users/spinal/devkitPro/devkitARM/bin/../lib/gcc/arm-none-eabi/4.9.2/armv6k/fpu/libgcc.a(unwind-arm.o) (__gnu_unwind_execute)
/Users/spinal/devkitPro/devkitARM/bin/../lib/gcc/arm-none-eabi/4.9.2/../../../../arm-none-eabi/lib/armv6k/fpu/libg.a(lib_a-abort.o)
                              /Users/spinal/devkitPro/devkitARM/bin/../lib/gcc/arm-none-eabi/4.9.2/../../../../arm-none-eabi/lib/armv6k/fpu/libstdc++.a(eh_personality.o) (abort)
/Users/spinal/devkitPro/devkitARM/bin/../lib/gcc/arm-none-eabi/4.9.2/../../../../arm-none-eabi/lib/armv6k/fpu/libg.a(lib_a-atoi.o)
                              Prefs.o (atoi)
/Users/spinal/devkitPro/devkitARM/bin/../lib/gcc/arm-none-eabi/4.9.2/../../../../arm-none-eabi/lib/armv6k/fpu/libg.a(lib_a-bsearch.o)
                              /Users/spinal/devkitPro/libctru/lib/libctru.a(sdmc_dev.o) (bsearch)
/Users/spinal/devkitPro/devkitARM/bin/../lib/gcc/arm-none-eabi/4.9.2/../../../../arm-none-eabi/lib/armv6k/fpu/libg.a(lib_a-fclose.o)
                              1541d64.o (fclose)
/Users/spinal/devkitPro/devkitARM/bin/../lib/gcc/arm-none-eabi/4.9.2/../../../../arm-none-eabi/lib/armv6k/fpu/libg.a(lib_a-fflush.o)
                              /Users/spinal/devkitPro/devkitARM/bin/../lib/gcc/arm-none-eabi/4.9.2/../../../../arm-none-eabi/lib/armv6k/fpu/libg.a(lib_a-fclose.o) (__sflush_r)
/Users/spinal/devkitPro/devkitARM/bin/../lib/gcc/arm-none-eabi/4.9.2/../../../../arm-none-eabi/lib/armv6k/fpu/libg.a(lib_a-fgetc.o)
                              C64.o (fgetc)
/Users/spinal/devkitPro/devkitARM/bin/../lib/gcc/arm-none-eabi/4.9.2/../../../../arm-none-eabi/lib/armv6k/fpu/libg.a(lib_a-fgets.o)
                              Prefs.o (fgets)
/Users/spinal/devkitPro/devkitARM/bin/../lib/gcc/arm-none-eabi/4.9.2/../../../../arm-none-eabi/lib/armv6k/fpu/libg.a(lib_a-findfp.o)
                              /Users/spinal/devkitPro/devkitARM/bin/../lib/gcc/arm-none-eabi/4.9.2/../../../../arm-none-eabi/lib/armv6k/fpu/libg.a(lib_a-fclose.o) (__sinit)
/Users/spinal/devkitPro/devkitARM/bin/../lib/gcc/arm-none-eabi/4.9.2/../../../../arm-none-eabi/lib/armv6k/fpu/libg.a(lib_a-fini.o)
                              /Users/spinal/devkitPro/libctru/lib/libctru.a(stack_adjust.o) (__libc_fini_array)
/Users/spinal/devkitPro/devkitARM/bin/../lib/gcc/arm-none-eabi/4.9.2/../../../../arm-none-eabi/lib/armv6k/fpu/libg.a(lib_a-fopen.o)
                              1541d64.o (fopen)
/Users/spinal/devkitPro/devkitARM/bin/../lib/gcc/arm-none-eabi/4.9.2/../../../../arm-none-eabi/lib/armv6k/fpu/libg.a(lib_a-fprintf.o)
                              C64.o (fprintf)
/Users/spinal/devkitPro/devkitARM/bin/../lib/gcc/arm-none-eabi/4.9.2/../../../../arm-none-eabi/lib/armv6k/fpu/libg.a(lib_a-fputc.o)
                              C64.o (fputc)
/Users/spinal/devkitPro/devkitARM/bin/../lib/gcc/arm-none-eabi/4.9.2/../../../../arm-none-eabi/lib/armv6k/fpu/libg.a(lib_a-fputs.o)
                              SAM.o (fputs)
/Users/spinal/devkitPro/devkitARM/bin/../lib/gcc/arm-none-eabi/4.9.2/../../../../arm-none-eabi/lib/armv6k/fpu/libg.a(lib_a-fread.o)
                              1541d64.o (fread)
/Users/spinal/devkitPro/devkitARM/bin/../lib/gcc/arm-none-eabi/4.9.2/../../../../arm-none-eabi/lib/armv6k/fpu/libg.a(lib_a-freer.o)
                              /Users/spinal/devkitPro/devkitARM/bin/../lib/gcc/arm-none-eabi/4.9.2/../../../../arm-none-eabi/lib/armv6k/fpu/libg.a(lib_a-fclose.o) (_free_r)
/Users/spinal/devkitPro/devkitARM/bin/../lib/gcc/arm-none-eabi/4.9.2/../../../../arm-none-eabi/lib/armv6k/fpu/libg.a(lib_a-fscanf.o)
                              1541t64.o (fscanf)
/Users/spinal/devkitPro/devkitARM/bin/../lib/gcc/arm-none-eabi/4.9.2/../../../../arm-none-eabi/lib/armv6k/fpu/libg.a(lib_a-fseek.o)
                              /Users/spinal/devkitPro/devkitARM/bin/../lib/gcc/arm-none-eabi/4.9.2/../../../../arm-none-eabi/lib/armv6k/fpu/libg.a(lib_a-fopen.o) (_fseek_r)
/Users/spinal/devkitPro/devkitARM/bin/../lib/gcc/arm-none-eabi/4.9.2/../../../../arm-none-eabi/lib/armv6k/fpu/libg.a(lib_a-fseeko.o)
                              /Users/spinal/devkitPro/devkitARM/bin/../lib/gcc/arm-none-eabi/4.9.2/../../../../arm-none-eabi/lib/armv6k/fpu/libg.a(lib_a-fseek.o) (_fseeko_r)
/Users/spinal/devkitPro/devkitARM/bin/../lib/gcc/arm-none-eabi/4.9.2/../../../../arm-none-eabi/lib/armv6k/fpu/libg.a(lib_a-ftell.o)
                              1541d64.o (ftell)
/Users/spinal/devkitPro/devkitARM/bin/../lib/gcc/arm-none-eabi/4.9.2/../../../../arm-none-eabi/lib/armv6k/fpu/libg.a(lib_a-ftello.o)
                              /Users/spinal/devkitPro/devkitARM/bin/../lib/gcc/arm-none-eabi/4.9.2/../../../../arm-none-eabi/lib/armv6k/fpu/libg.a(lib_a-ftell.o) (_ftello_r)
/Users/spinal/devkitPro/devkitARM/bin/../lib/gcc/arm-none-eabi/4.9.2/../../../../arm-none-eabi/lib/armv6k/fpu/libg.a(lib_a-fvwrite.o)
                              /Users/spinal/devkitPro/devkitARM/bin/../lib/gcc/arm-none-eabi/4.9.2/../../../../arm-none-eabi/lib/armv6k/fpu/libg.a(lib_a-fputs.o) (__sfvwrite_r)
/Users/spinal/devkitPro/devkitARM/bin/../lib/gcc/arm-none-eabi/4.9.2/../../../../arm-none-eabi/lib/armv6k/fpu/libg.a(lib_a-fwalk.o)
                              /Users/spinal/devkitPro/devkitARM/bin/../lib/gcc/arm-none-eabi/4.9.2/../../../../arm-none-eabi/lib/armv6k/fpu/libg.a(lib_a-findfp.o) (_fwalk)
/Users/spinal/devkitPro/devkitARM/bin/../lib/gcc/arm-none-eabi/4.9.2/../../../../arm-none-eabi/lib/armv6k/fpu/libg.a(lib_a-fwrite.o)
                              1541d64.o (fwrite)
/Users/spinal/devkitPro/devkitARM/bin/../lib/gcc/arm-none-eabi/4.9.2/../../../../arm-none-eabi/lib/armv6k/fpu/libg.a(lib_a-impure.o)
                              /Users/spinal/devkitPro/devkitARM/bin/../lib/gcc/arm-none-eabi/4.9.2/../../../../arm-none-eabi/lib/armv6k/fpu/libg.a(lib_a-fflush.o) (_global_impure_ptr)
/Users/spinal/devkitPro/devkitARM/bin/../lib/gcc/arm-none-eabi/4.9.2/../../../../arm-none-eabi/lib/armv6k/fpu/libg.a(lib_a-init.o)
                              /Users/spinal/devkitPro/libctru/lib/libctru.a(stack_adjust.o) (__libc_init_array)
/Users/spinal/devkitPro/devkitARM/bin/../lib/gcc/arm-none-eabi/4.9.2/../../../../arm-none-eabi/lib/armv6k/fpu/libg.a(lib_a-iprintf.o)
                              C64.o (iprintf)
/Users/spinal/devkitPro/devkitARM/bin/../lib/gcc/arm-none-eabi/4.9.2/../../../../arm-none-eabi/lib/armv6k/fpu/libg.a(lib_a-makebuf.o)
                              /Users/spinal/devkitPro/devkitARM/bin/../lib/gcc/arm-none-eabi/4.9.2/../../../../arm-none-eabi/lib/armv6k/fpu/libg.a(lib_a-fseeko.o) (__smakebuf_r)
/Users/spinal/devkitPro/devkitARM/bin/../lib/gcc/arm-none-eabi/4.9.2/../../../../arm-none-eabi/lib/armv6k/fpu/libg.a(lib_a-malloc.o)
                              1541t64.o (malloc)
/Users/spinal/devkitPro/devkitARM/bin/../lib/gcc/arm-none-eabi/4.9.2/../../../../arm-none-eabi/lib/armv6k/fpu/libg.a(lib_a-mallocr.o)
                              /Users/spinal/devkitPro/devkitARM/bin/../lib/gcc/arm-none-eabi/4.9.2/../../../../arm-none-eabi/lib/armv6k/fpu/libg.a(lib_a-findfp.o) (_malloc_r)
/Users/spinal/devkitPro/devkitARM/bin/../lib/gcc/arm-none-eabi/4.9.2/../../../../arm-none-eabi/lib/armv6k/fpu/libg.a(lib_a-memchr.o)
                              1541d64.o (memchr)
/Users/spinal/devkitPro/devkitARM/bin/../lib/gcc/arm-none-eabi/4.9.2/../../../../arm-none-eabi/lib/armv6k/fpu/libg.a(lib_a-memcmp.o)
                              1541d64.o (memcmp)
/Users/spinal/devkitPro/devkitARM/bin/../lib/gcc/arm-none-eabi/4.9.2/../../../../arm-none-eabi/lib/armv6k/fpu/libg.a(lib_a-memcpy.o)
                              1541d64.o (memcpy)
/Users/spinal/devkitPro/devkitARM/bin/../lib/gcc/arm-none-eabi/4.9.2/../../../../arm-none-eabi/lib/armv6k/fpu/libg.a(lib_a-memmove.o)
                              /Users/spinal/devkitPro/devkitARM/bin/../lib/gcc/arm-none-eabi/4.9.2/../../../../arm-none-eabi/lib/armv6k/fpu/libg.a(lib_a-fvwrite.o) (memmove)
/Users/spinal/devkitPro/devkitARM/bin/../lib/gcc/arm-none-eabi/4.9.2/../../../../arm-none-eabi/lib/armv6k/fpu/libg.a(lib_a-memset.o)
                              1541d64.o (memset)
/Users/spinal/devkitPro/devkitARM/bin/../lib/gcc/arm-none-eabi/4.9.2/../../../../arm-none-eabi/lib/armv6k/fpu/libg.a(lib_a-mlock.o)
                              /Users/spinal/devkitPro/devkitARM/bin/../lib/gcc/arm-none-eabi/4.9.2/../../../../arm-none-eabi/lib/armv6k/fpu/libg.a(lib_a-freer.o) (__malloc_lock)
/Users/spinal/devkitPro/devkitARM/bin/../lib/gcc/arm-none-eabi/4.9.2/../../../../arm-none-eabi/lib/armv6k/fpu/libg.a(lib_a-printf.o)
                              1541job.o (printf)
/Users/spinal/devkitPro/devkitARM/bin/../lib/gcc/arm-none-eabi/4.9.2/../../../../arm-none-eabi/lib/armv6k/fpu/libg.a(lib_a-putc.o)
                              /Users/spinal/devkitPro/devkitARM/bin/../lib/gcc/arm-none-eabi/4.9.2/../../../../arm-none-eabi/lib/armv6k/fpu/libg.a(lib_a-fputc.o) (_putc_r)
/Users/spinal/devkitPro/devkitARM/bin/../lib/gcc/arm-none-eabi/4.9.2/../../../../arm-none-eabi/lib/armv6k/fpu/libg.a(lib_a-puts.o)
                              1541t64.o (puts)
/Users/spinal/devkitPro/devkitARM/bin/../lib/gcc/arm-none-eabi/4.9.2/../../../../arm-none-eabi/lib/armv6k/fpu/libg.a(lib_a-rand.o)
                              C64.o (rand)
/Users/spinal/devkitPro/devkitARM/bin/../lib/gcc/arm-none-eabi/4.9.2/../../../../arm-none-eabi/lib/armv6k/fpu/libg.a(lib_a-realloc.o)
                              /Users/spinal/devkitPro/devkitARM/bin/../lib/gcc/arm-none-eabi/4.9.2/../../../../arm-none-eabi/lib/armv6k/fpu/libstdc++.a(cp-demangle.o) (realloc)
/Users/spinal/devkitPro/devkitARM/bin/../lib/gcc/arm-none-eabi/4.9.2/../../../../arm-none-eabi/lib/armv6k/fpu/libg.a(lib_a-reallocr.o)
                              /Users/spinal/devkitPro/devkitARM/bin/../lib/gcc/arm-none-eabi/4.9.2/../../../../arm-none-eabi/lib/armv6k/fpu/libg.a(lib_a-fvwrite.o) (_realloc_r)
/Users/spinal/devkitPro/devkitARM/bin/../lib/gcc/arm-none-eabi/4.9.2/../../../../arm-none-eabi/lib/armv6k/fpu/libg.a(lib_a-refill.o)
                              /Users/spinal/devkitPro/devkitARM/bin/../lib/gcc/arm-none-eabi/4.9.2/../../../../arm-none-eabi/lib/armv6k/fpu/libg.a(lib_a-fgets.o) (__srefill_r)
/Users/spinal/devkitPro/devkitARM/bin/../lib/gcc/arm-none-eabi/4.9.2/../../../../arm-none-eabi/lib/armv6k/fpu/libg.a(lib_a-remove.o)
                              1541d64.o (remove)
/Users/spinal/devkitPro/devkitARM/bin/../lib/gcc/arm-none-eabi/4.9.2/../../../../arm-none-eabi/lib/armv6k/fpu/libg.a(lib_a-rget.o)
                              1541d64.o (__srget_r)
/Users/spinal/devkitPro/devkitARM/bin/../lib/gcc/arm-none-eabi/4.9.2/../../../../arm-none-eabi/lib/armv6k/fpu/libg.a(lib_a-signal.o)
                              /Users/spinal/devkitPro/devkitARM/bin/../lib/gcc/arm-none-eabi/4.9.2/../../../../arm-none-eabi/lib/armv6k/fpu/libg.a(lib_a-abort.o) (raise)
/Users/spinal/devkitPro/devkitARM/bin/../lib/gcc/arm-none-eabi/4.9.2/../../../../arm-none-eabi/lib/armv6k/fpu/libg.a(lib_a-sprintf.o)
                              C64.o (sprintf)
/Users/spinal/devkitPro/devkitARM/bin/../lib/gcc/arm-none-eabi/4.9.2/../../../../arm-none-eabi/lib/armv6k/fpu/libg.a(lib_a-sscanf.o)
                              Prefs.o (sscanf)
/Users/spinal/devkitPro/devkitARM/bin/../lib/gcc/arm-none-eabi/4.9.2/../../../../arm-none-eabi/lib/armv6k/fpu/libg.a(lib_a-stdio.o)
                              /Users/spinal/devkitPro/devkitARM/bin/../lib/gcc/arm-none-eabi/4.9.2/../../../../arm-none-eabi/lib/armv6k/fpu/libg.a(lib_a-findfp.o) (__sread)
/Users/spinal/devkitPro/devkitARM/bin/../lib/gcc/arm-none-eabi/4.9.2/../../../../arm-none-eabi/lib/armv6k/fpu/libg.a(lib_a-stpcpy.o)
                              C64.o (stpcpy)
/Users/spinal/devkitPro/devkitARM/bin/../lib/gcc/arm-none-eabi/4.9.2/../../../../arm-none-eabi/lib/armv6k/fpu/libg.a(lib_a-strcasecmp.o)
                              C64.o (strcasecmp)
/Users/spinal/devkitPro/devkitARM/bin/../lib/gcc/arm-none-eabi/4.9.2/../../../../arm-none-eabi/lib/armv6k/fpu/libg.a(lib_a-strchr.o)
                              1541d64.o (strchr)
/Users/spinal/devkitPro/devkitARM/bin/../lib/gcc/arm-none-eabi/4.9.2/../../../../arm-none-eabi/lib/armv6k/fpu/libg.a(lib_a-strcmp.o)
                              1541job.o (strcmp)
/Users/spinal/devkitPro/devkitARM/bin/../lib/gcc/arm-none-eabi/4.9.2/../../../../arm-none-eabi/lib/armv6k/fpu/libg.a(lib_a-strcpy.o)
                              C64.o (strcpy)
/Users/spinal/devkitPro/devkitARM/bin/../lib/gcc/arm-none-eabi/4.9.2/../../../../arm-none-eabi/lib/armv6k/fpu/libg.a(lib_a-strlen.o)
                              C64.o (strlen)
/Users/spinal/devkitPro/devkitARM/bin/../lib/gcc/arm-none-eabi/4.9.2/../../../../arm-none-eabi/lib/armv6k/fpu/libg.a(lib_a-strncat.o)
                              /Users/spinal/devkitPro/libctru/lib/libctru.a(sdmc_dev.o) (strncat)
/Users/spinal/devkitPro/devkitARM/bin/../lib/gcc/arm-none-eabi/4.9.2/../../../../arm-none-eabi/lib/armv6k/fpu/libg.a(lib_a-strncmp.o)
                              C64.o (strncmp)
/Users/spinal/devkitPro/devkitARM/bin/../lib/gcc/arm-none-eabi/4.9.2/../../../../arm-none-eabi/lib/armv6k/fpu/libg.a(lib_a-strncpy.o)
                              1541d64.o (strncpy)
/Users/spinal/devkitPro/devkitARM/bin/../lib/gcc/arm-none-eabi/4.9.2/../../../../arm-none-eabi/lib/armv6k/fpu/libg.a(lib_a-strtol.o)
                              /Users/spinal/devkitPro/devkitARM/bin/../lib/gcc/arm-none-eabi/4.9.2/../../../../arm-none-eabi/lib/armv6k/fpu/libg.a(lib_a-atoi.o) (_strtol_r)
/Users/spinal/devkitPro/devkitARM/bin/../lib/gcc/arm-none-eabi/4.9.2/../../../../arm-none-eabi/lib/armv6k/fpu/libg.a(lib_a-svfprintf.o)
                              /Users/spinal/devkitPro/devkitARM/bin/../lib/gcc/arm-none-eabi/4.9.2/../../../../arm-none-eabi/lib/armv6k/fpu/libg.a(lib_a-sprintf.o) (_svfprintf_r)
/Users/spinal/devkitPro/devkitARM/bin/../lib/gcc/arm-none-eabi/4.9.2/../../../../arm-none-eabi/lib/armv6k/fpu/libg.a(lib_a-svfscanf.o)
                              /Users/spinal/devkitPro/devkitARM/bin/../lib/gcc/arm-none-eabi/4.9.2/../../../../arm-none-eabi/lib/armv6k/fpu/libg.a(lib_a-sscanf.o) (__ssvfscanf_r)
/Users/spinal/devkitPro/devkitARM/bin/../lib/gcc/arm-none-eabi/4.9.2/../../../../arm-none-eabi/lib/armv6k/fpu/libg.a(lib_a-sysstat.o)
                              C64.o (stat)
/Users/spinal/devkitPro/devkitARM/bin/../lib/gcc/arm-none-eabi/4.9.2/../../../../arm-none-eabi/lib/armv6k/fpu/libg.a(lib_a-syswrite.o)
                              /Users/spinal/devkitPro/devkitARM/bin/../lib/gcc/arm-none-eabi/4.9.2/../../../../arm-none-eabi/lib/armv6k/fpu/libstdc++.a(pure.o) (write)
/Users/spinal/devkitPro/devkitARM/bin/../lib/gcc/arm-none-eabi/4.9.2/../../../../arm-none-eabi/lib/armv6k/fpu/libg.a(lib_a-vfiprintf.o)
                              /Users/spinal/devkitPro/devkitARM/bin/../lib/gcc/arm-none-eabi/4.9.2/../../../../arm-none-eabi/lib/armv6k/fpu/libg.a(lib_a-iprintf.o) (_vfiprintf_r)
/Users/spinal/devkitPro/devkitARM/bin/../lib/gcc/arm-none-eabi/4.9.2/../../../../arm-none-eabi/lib/armv6k/fpu/libg.a(lib_a-vfprintf.o)
                              /Users/spinal/devkitPro/devkitARM/bin/../lib/gcc/arm-none-eabi/4.9.2/../../../../arm-none-eabi/lib/armv6k/fpu/libg.a(lib_a-fprintf.o) (_vfprintf_r)
/Users/spinal/devkitPro/devkitARM/bin/../lib/gcc/arm-none-eabi/4.9.2/../../../../arm-none-eabi/lib/armv6k/fpu/libg.a(lib_a-vfscanf.o)
                              /Users/spinal/devkitPro/devkitARM/bin/../lib/gcc/arm-none-eabi/4.9.2/../../../../arm-none-eabi/lib/armv6k/fpu/libg.a(lib_a-fscanf.o) (_vfscanf_r)
/Users/spinal/devkitPro/devkitARM/bin/../lib/gcc/arm-none-eabi/4.9.2/../../../../arm-none-eabi/lib/armv6k/fpu/libg.a(lib_a-wbuf.o)
                              /Users/spinal/devkitPro/devkitARM/bin/../lib/gcc/arm-none-eabi/4.9.2/../../../../arm-none-eabi/lib/armv6k/fpu/libg.a(lib_a-putc.o) (__swbuf_r)
/Users/spinal/devkitPro/devkitARM/bin/../lib/gcc/arm-none-eabi/4.9.2/../../../../arm-none-eabi/lib/armv6k/fpu/libg.a(lib_a-wcrtomb.o)
                              /Users/spinal/devkitPro/devkitARM/bin/../lib/gcc/arm-none-eabi/4.9.2/../../../../arm-none-eabi/lib/armv6k/fpu/libg.a(lib_a-svfprintf.o) (_wcrtomb_r)
/Users/spinal/devkitPro/devkitARM/bin/../lib/gcc/arm-none-eabi/4.9.2/../../../../arm-none-eabi/lib/armv6k/fpu/libg.a(lib_a-wcsrtombs.o)
                              /Users/spinal/devkitPro/devkitARM/bin/../lib/gcc/arm-none-eabi/4.9.2/../../../../arm-none-eabi/lib/armv6k/fpu/libg.a(lib_a-svfprintf.o) (_wcsrtombs_r)
/Users/spinal/devkitPro/devkitARM/bin/../lib/gcc/arm-none-eabi/4.9.2/../../../../arm-none-eabi/lib/armv6k/fpu/libg.a(lib_a-wctomb_r.o)
                              /Users/spinal/devkitPro/devkitARM/bin/../lib/gcc/arm-none-eabi/4.9.2/../../../../arm-none-eabi/lib/armv6k/fpu/libg.a(lib_a-wcrtomb.o) (__wctomb)
/Users/spinal/devkitPro/devkitARM/bin/../lib/gcc/arm-none-eabi/4.9.2/../../../../arm-none-eabi/lib/armv6k/fpu/libg.a(lib_a-wsetup.o)
                              /Users/spinal/devkitPro/devkitARM/bin/../lib/gcc/arm-none-eabi/4.9.2/../../../../arm-none-eabi/lib/armv6k/fpu/libg.a(lib_a-fvwrite.o) (__swsetup_r)
/Users/spinal/devkitPro/devkitARM/bin/../lib/gcc/arm-none-eabi/4.9.2/../../../../arm-none-eabi/lib/armv6k/fpu/libg.a(lib_a-ctype_.o)
                              /Users/spinal/devkitPro/devkitARM/bin/../lib/gcc/arm-none-eabi/4.9.2/../../../../arm-none-eabi/lib/armv6k/fpu/libg.a(lib_a-strcasecmp.o) (__ctype_ptr__)
/Users/spinal/devkitPro/devkitARM/bin/../lib/gcc/arm-none-eabi/4.9.2/../../../../arm-none-eabi/lib/armv6k/fpu/libg.a(lib_a-dtoa.o)
                              /Users/spinal/devkitPro/devkitARM/bin/../lib/gcc/arm-none-eabi/4.9.2/../../../../arm-none-eabi/lib/armv6k/fpu/libg.a(lib_a-svfprintf.o) (_dtoa_r)
/Users/spinal/devkitPro/devkitARM/bin/../lib/gcc/arm-none-eabi/4.9.2/../../../../arm-none-eabi/lib/armv6k/fpu/libg.a(lib_a-flags.o)
                              /Users/spinal/devkitPro/devkitARM/bin/../lib/gcc/arm-none-eabi/4.9.2/../../../../arm-none-eabi/lib/armv6k/fpu/libg.a(lib_a-fopen.o) (__sflags)
/Users/spinal/devkitPro/devkitARM/bin/../lib/gcc/arm-none-eabi/4.9.2/../../../../arm-none-eabi/lib/armv6k/fpu/libg.a(lib_a-fputwc.o)
                              /Users/spinal/devkitPro/devkitARM/bin/../lib/gcc/arm-none-eabi/4.9.2/../../../../arm-none-eabi/lib/armv6k/fpu/libg.a(lib_a-vfiprintf.o) (_fputwc_r)
/Users/spinal/devkitPro/devkitARM/bin/../lib/gcc/arm-none-eabi/4.9.2/../../../../arm-none-eabi/lib/armv6k/fpu/libg.a(lib_a-iswspace.o)
                              /Users/spinal/devkitPro/devkitARM/bin/../lib/gcc/arm-none-eabi/4.9.2/../../../../arm-none-eabi/lib/armv6k/fpu/libg.a(lib_a-svfscanf.o) (iswspace)
/Users/spinal/devkitPro/devkitARM/bin/../lib/gcc/arm-none-eabi/4.9.2/../../../../arm-none-eabi/lib/armv6k/fpu/libg.a(lib_a-jp2uc.o)
                              /Users/spinal/devkitPro/devkitARM/bin/../lib/gcc/arm-none-eabi/4.9.2/../../../../arm-none-eabi/lib/armv6k/fpu/libg.a(lib_a-iswspace.o) (_jp2uc)
/Users/spinal/devkitPro/devkitARM/bin/../lib/gcc/arm-none-eabi/4.9.2/../../../../arm-none-eabi/lib/armv6k/fpu/libg.a(lib_a-locale.o)
                              /Users/spinal/devkitPro/devkitARM/bin/../lib/gcc/arm-none-eabi/4.9.2/../../../../arm-none-eabi/lib/armv6k/fpu/libg.a(lib_a-svfprintf.o) (__locale_charset)
/Users/spinal/devkitPro/devkitARM/bin/../lib/gcc/arm-none-eabi/4.9.2/../../../../arm-none-eabi/lib/armv6k/fpu/libg.a(lib_a-mbrtowc.o)
                              /Users/spinal/devkitPro/devkitARM/bin/../lib/gcc/arm-none-eabi/4.9.2/../../../../arm-none-eabi/lib/armv6k/fpu/libg.a(lib_a-svfscanf.o) (_mbrtowc_r)
/Users/spinal/devkitPro/devkitARM/bin/../lib/gcc/arm-none-eabi/4.9.2/../../../../arm-none-eabi/lib/armv6k/fpu/libg.a(lib_a-mbtowc_r.o)
                              /Users/spinal/devkitPro/devkitARM/bin/../lib/gcc/arm-none-eabi/4.9.2/../../../../arm-none-eabi/lib/armv6k/fpu/libg.a(lib_a-locale.o) (__utf8_mbtowc)
/Users/spinal/devkitPro/devkitARM/bin/../lib/gcc/arm-none-eabi/4.9.2/../../../../arm-none-eabi/lib/armv6k/fpu/libg.a(lib_a-mprec.o)
                              /Users/spinal/devkitPro/devkitARM/bin/../lib/gcc/arm-none-eabi/4.9.2/../../../../arm-none-eabi/lib/armv6k/fpu/libg.a(lib_a-dtoa.o) (_Balloc)
/Users/spinal/devkitPro/devkitARM/bin/../lib/gcc/arm-none-eabi/4.9.2/../../../../arm-none-eabi/lib/armv6k/fpu/libg.a(lib_a-s_fpclassify.o)
                              /Users/spinal/devkitPro/devkitARM/bin/../lib/gcc/arm-none-eabi/4.9.2/../../../../arm-none-eabi/lib/armv6k/fpu/libg.a(lib_a-svfprintf.o) (__fpclassifyd)
/Users/spinal/devkitPro/devkitARM/bin/../lib/gcc/arm-none-eabi/4.9.2/../../../../arm-none-eabi/lib/armv6k/fpu/libg.a(lib_a-s_frexp.o)
                              /Users/spinal/devkitPro/devkitARM/bin/../lib/gcc/arm-none-eabi/4.9.2/../../../../arm-none-eabi/lib/armv6k/fpu/libg.a(lib_a-svfprintf.o) (frexp)
/Users/spinal/devkitPro/devkitARM/bin/../lib/gcc/arm-none-eabi/4.9.2/../../../../arm-none-eabi/lib/armv6k/fpu/libg.a(lib_a-sccl.o)
                              /Users/spinal/devkitPro/devkitARM/bin/../lib/gcc/arm-none-eabi/4.9.2/../../../../arm-none-eabi/lib/armv6k/fpu/libg.a(lib_a-svfscanf.o) (__sccl)
/Users/spinal/devkitPro/devkitARM/bin/../lib/gcc/arm-none-eabi/4.9.2/../../../../arm-none-eabi/lib/armv6k/fpu/libg.a(lib_a-sf_nan.o)
                              /Users/spinal/devkitPro/devkitARM/bin/../lib/gcc/arm-none-eabi/4.9.2/../../../../arm-none-eabi/lib/armv6k/fpu/libg.a(lib_a-svfscanf.o) (nanf)
/Users/spinal/devkitPro/devkitARM/bin/../lib/gcc/arm-none-eabi/4.9.2/../../../../arm-none-eabi/lib/armv6k/fpu/libg.a(lib_a-stpncpy.o)
                              /Users/spinal/devkitPro/devkitARM/bin/../lib/gcc/arm-none-eabi/4.9.2/../../../../arm-none-eabi/lib/armv6k/fpu/libg.a(lib_a-svfscanf.o) (stpncpy)
/Users/spinal/devkitPro/devkitARM/bin/../lib/gcc/arm-none-eabi/4.9.2/../../../../arm-none-eabi/lib/armv6k/fpu/libg.a(lib_a-strcat.o)
                              /Users/spinal/devkitPro/devkitARM/bin/../lib/gcc/arm-none-eabi/4.9.2/../../../../arm-none-eabi/lib/armv6k/fpu/libg.a(lib_a-locale.o) (strcat)
/Users/spinal/devkitPro/devkitARM/bin/../lib/gcc/arm-none-eabi/4.9.2/../../../../arm-none-eabi/lib/armv6k/fpu/libg.a(lib_a-strlcpy.o)
                              /Users/spinal/devkitPro/devkitARM/bin/../lib/gcc/arm-none-eabi/4.9.2/../../../../arm-none-eabi/lib/armv6k/fpu/libg.a(lib_a-locale.o) (strlcpy)
/Users/spinal/devkitPro/devkitARM/bin/../lib/gcc/arm-none-eabi/4.9.2/../../../../arm-none-eabi/lib/armv6k/fpu/libg.a(lib_a-strncasecmp.o)
                              /Users/spinal/devkitPro/devkitARM/bin/../lib/gcc/arm-none-eabi/4.9.2/../../../../arm-none-eabi/lib/armv6k/fpu/libg.a(lib_a-locale.o) (strncasecmp)
/Users/spinal/devkitPro/devkitARM/bin/../lib/gcc/arm-none-eabi/4.9.2/../../../../arm-none-eabi/lib/armv6k/fpu/libg.a(lib_a-strtod.o)
                              /Users/spinal/devkitPro/devkitARM/bin/../lib/gcc/arm-none-eabi/4.9.2/../../../../arm-none-eabi/lib/armv6k/fpu/libg.a(lib_a-svfscanf.o) (_strtod_r)
/Users/spinal/devkitPro/devkitARM/bin/../lib/gcc/arm-none-eabi/4.9.2/../../../../arm-none-eabi/lib/armv6k/fpu/libg.a(lib_a-strtoll_r.o)
                              /Users/spinal/devkitPro/devkitARM/bin/../lib/gcc/arm-none-eabi/4.9.2/../../../../arm-none-eabi/lib/armv6k/fpu/libg.a(lib_a-svfscanf.o) (_strtoll_r)
/Users/spinal/devkitPro/devkitARM/bin/../lib/gcc/arm-none-eabi/4.9.2/../../../../arm-none-eabi/lib/armv6k/fpu/libg.a(lib_a-strtoul.o)
                              /Users/spinal/devkitPro/devkitARM/bin/../lib/gcc/arm-none-eabi/4.9.2/../../../../arm-none-eabi/lib/armv6k/fpu/libg.a(lib_a-svfscanf.o) (_strtoul_r)
/Users/spinal/devkitPro/devkitARM/bin/../lib/gcc/arm-none-eabi/4.9.2/../../../../arm-none-eabi/lib/armv6k/fpu/libg.a(lib_a-strtoull_r.o)
                              /Users/spinal/devkitPro/devkitARM/bin/../lib/gcc/arm-none-eabi/4.9.2/../../../../arm-none-eabi/lib/armv6k/fpu/libg.a(lib_a-svfscanf.o) (_strtoull_r)
/Users/spinal/devkitPro/devkitARM/bin/../lib/gcc/arm-none-eabi/4.9.2/../../../../arm-none-eabi/lib/armv6k/fpu/libg.a(lib_a-svfiprintf.o)
                              /Users/spinal/devkitPro/devkitARM/bin/../lib/gcc/arm-none-eabi/4.9.2/../../../../arm-none-eabi/lib/armv6k/fpu/libg.a(lib_a-svfprintf.o) (__ssprint_r)
/Users/spinal/devkitPro/devkitARM/bin/../lib/gcc/arm-none-eabi/4.9.2/../../../../arm-none-eabi/lib/armv6k/fpu/libg.a(lib_a-svfiscanf.o)
                              /Users/spinal/devkitPro/devkitARM/bin/../lib/gcc/arm-none-eabi/4.9.2/../../../../arm-none-eabi/lib/armv6k/fpu/libg.a(lib_a-svfscanf.o) (_sungetc_r)
/Users/spinal/devkitPro/devkitARM/bin/../lib/gcc/arm-none-eabi/4.9.2/../../../../arm-none-eabi/lib/armv6k/fpu/libg.a(lib_a-ungetc.o)
                              /Users/spinal/devkitPro/devkitARM/bin/../lib/gcc/arm-none-eabi/4.9.2/../../../../arm-none-eabi/lib/armv6k/fpu/libg.a(lib_a-svfiscanf.o) (__submore)
/Users/spinal/devkitPro/devkitARM/bin/../lib/gcc/arm-none-eabi/4.9.2/../../../../arm-none-eabi/lib/armv6k/fpu/libg.a(lib_a-wcsnrtombs.o)
                              /Users/spinal/devkitPro/devkitARM/bin/../lib/gcc/arm-none-eabi/4.9.2/../../../../arm-none-eabi/lib/armv6k/fpu/libg.a(lib_a-wcsrtombs.o) (_wcsnrtombs_r)
/Users/spinal/devkitPro/devkitARM/bin/../lib/gcc/arm-none-eabi/4.9.2/../../../../arm-none-eabi/lib/armv6k/fpu/libg.a(lib_a-callocr.o)
                              /Users/spinal/devkitPro/devkitARM/bin/../lib/gcc/arm-none-eabi/4.9.2/../../../../arm-none-eabi/lib/armv6k/fpu/libg.a(lib_a-mprec.o) (_calloc_r)
/Users/spinal/devkitPro/devkitARM/bin/../lib/gcc/arm-none-eabi/4.9.2/../../../../arm-none-eabi/lib/armv6k/fpu/libg.a(lib_a-gdtoa-gethex.o)
                              /Users/spinal/devkitPro/devkitARM/bin/../lib/gcc/arm-none-eabi/4.9.2/../../../../arm-none-eabi/lib/armv6k/fpu/libg.a(lib_a-strtod.o) (__gethex)
/Users/spinal/devkitPro/devkitARM/bin/../lib/gcc/arm-none-eabi/4.9.2/../../../../arm-none-eabi/lib/armv6k/fpu/libg.a(lib_a-gdtoa-hexnan.o)
                              /Users/spinal/devkitPro/devkitARM/bin/../lib/gcc/arm-none-eabi/4.9.2/../../../../arm-none-eabi/lib/armv6k/fpu/libg.a(lib_a-strtod.o) (__hexnan)
/Users/spinal/devkitPro/devkitARM/bin/../lib/gcc/arm-none-eabi/4.9.2/../../../../arm-none-eabi/lib/armv6k/fpu/libg.a(lib_a-getenv_r.o)
                              /Users/spinal/devkitPro/devkitARM/bin/../lib/gcc/arm-none-eabi/4.9.2/../../../../arm-none-eabi/lib/armv6k/fpu/libg.a(lib_a-locale.o) (_getenv_r)
/Users/spinal/devkitPro/devkitARM/bin/../lib/gcc/arm-none-eabi/4.9.2/../../../../arm-none-eabi/lib/armv6k/fpu/libg.a(lib_a-environ.o)
                              /Users/spinal/devkitPro/devkitARM/bin/../lib/gcc/arm-none-eabi/4.9.2/../../../../arm-none-eabi/lib/armv6k/fpu/libg.a(lib_a-getenv_r.o) (environ)
/Users/spinal/devkitPro/devkitARM/bin/../lib/gcc/arm-none-eabi/4.9.2/../../../../arm-none-eabi/lib/armv6k/fpu/libg.a(lib_a-envlock.o)
                              /Users/spinal/devkitPro/devkitARM/bin/../lib/gcc/arm-none-eabi/4.9.2/../../../../arm-none-eabi/lib/armv6k/fpu/libg.a(lib_a-getenv_r.o) (__env_lock)
/Users/spinal/devkitPro/devkitARM/bin/../lib/gcc/arm-none-eabi/4.9.2/../../../../arm-none-eabi/lib/armv6k/fpu/libsysbase.a(iosupport.o)
                              /Users/spinal/devkitPro/libctru/lib/libctru.a(sdmc_dev.o) (setDefaultDevice)
/Users/spinal/devkitPro/devkitARM/bin/../lib/gcc/arm-none-eabi/4.9.2/../../../../arm-none-eabi/lib/armv6k/fpu/libsysbase.a(close.o)
                              /Users/spinal/devkitPro/devkitARM/bin/../lib/gcc/arm-none-eabi/4.9.2/../../../../arm-none-eabi/lib/armv6k/fpu/libg.a(lib_a-stdio.o) (_close_r)
/Users/spinal/devkitPro/devkitARM/bin/../lib/gcc/arm-none-eabi/4.9.2/../../../../arm-none-eabi/lib/armv6k/fpu/libsysbase.a(fstat.o)
                              /Users/spinal/devkitPro/devkitARM/bin/../lib/gcc/arm-none-eabi/4.9.2/../../../../arm-none-eabi/lib/armv6k/fpu/libg.a(lib_a-fseeko.o) (_fstat_r)
/Users/spinal/devkitPro/devkitARM/bin/../lib/gcc/arm-none-eabi/4.9.2/../../../../arm-none-eabi/lib/armv6k/fpu/libsysbase.a(getpid.o)
                              /Users/spinal/devkitPro/devkitARM/bin/../lib/gcc/arm-none-eabi/4.9.2/../../../../arm-none-eabi/lib/armv6k/fpu/libg.a(lib_a-signal.o) (_getpid_r)
/Users/spinal/devkitPro/devkitARM/bin/../lib/gcc/arm-none-eabi/4.9.2/../../../../arm-none-eabi/lib/armv6k/fpu/libsysbase.a(isatty.o)
                              /Users/spinal/devkitPro/devkitARM/bin/../lib/gcc/arm-none-eabi/4.9.2/../../../../arm-none-eabi/lib/armv6k/fpu/libg.a(lib_a-makebuf.o) (_isatty_r)
/Users/spinal/devkitPro/devkitARM/bin/../lib/gcc/arm-none-eabi/4.9.2/../../../../arm-none-eabi/lib/armv6k/fpu/libsysbase.a(kill.o)
                              /Users/spinal/devkitPro/devkitARM/bin/../lib/gcc/arm-none-eabi/4.9.2/../../../../arm-none-eabi/lib/armv6k/fpu/libg.a(lib_a-signal.o) (_kill_r)
/Users/spinal/devkitPro/devkitARM/bin/../lib/gcc/arm-none-eabi/4.9.2/../../../../arm-none-eabi/lib/armv6k/fpu/libsysbase.a(lseek.o)
                              /Users/spinal/devkitPro/devkitARM/bin/../lib/gcc/arm-none-eabi/4.9.2/../../../../arm-none-eabi/lib/armv6k/fpu/libg.a(lib_a-stdio.o) (_lseek_r)
/Users/spinal/devkitPro/devkitARM/bin/../lib/gcc/arm-none-eabi/4.9.2/../../../../arm-none-eabi/lib/armv6k/fpu/libsysbase.a(open.o)
                              /Users/spinal/devkitPro/devkitARM/bin/../lib/gcc/arm-none-eabi/4.9.2/../../../../arm-none-eabi/lib/armv6k/fpu/libg.a(lib_a-fopen.o) (_open_r)
/Users/spinal/devkitPro/devkitARM/bin/../lib/gcc/arm-none-eabi/4.9.2/../../../../arm-none-eabi/lib/armv6k/fpu/libsysbase.a(read.o)
                              /Users/spinal/devkitPro/devkitARM/bin/../lib/gcc/arm-none-eabi/4.9.2/../../../../arm-none-eabi/lib/armv6k/fpu/libg.a(lib_a-stdio.o) (_read_r)
/Users/spinal/devkitPro/devkitARM/bin/../lib/gcc/arm-none-eabi/4.9.2/../../../../arm-none-eabi/lib/armv6k/fpu/libsysbase.a(sbrk.o)
                              /Users/spinal/devkitPro/devkitARM/bin/../lib/gcc/arm-none-eabi/4.9.2/../../../../arm-none-eabi/lib/armv6k/fpu/libg.a(lib_a-freer.o) (_sbrk_r)
/Users/spinal/devkitPro/devkitARM/bin/../lib/gcc/arm-none-eabi/4.9.2/../../../../arm-none-eabi/lib/armv6k/fpu/libsysbase.a(stat.o)
                              /Users/spinal/devkitPro/devkitARM/bin/../lib/gcc/arm-none-eabi/4.9.2/../../../../arm-none-eabi/lib/armv6k/fpu/libg.a(lib_a-sysstat.o) (_stat_r)
/Users/spinal/devkitPro/devkitARM/bin/../lib/gcc/arm-none-eabi/4.9.2/../../../../arm-none-eabi/lib/armv6k/fpu/libsysbase.a(unlink.o)
                              /Users/spinal/devkitPro/devkitARM/bin/../lib/gcc/arm-none-eabi/4.9.2/../../../../arm-none-eabi/lib/armv6k/fpu/libg.a(lib_a-remove.o) (_unlink_r)
/Users/spinal/devkitPro/devkitARM/bin/../lib/gcc/arm-none-eabi/4.9.2/../../../../arm-none-eabi/lib/armv6k/fpu/libsysbase.a(write.o)
                              /Users/spinal/devkitPro/devkitARM/bin/../lib/gcc/arm-none-eabi/4.9.2/../../../../arm-none-eabi/lib/armv6k/fpu/libg.a(lib_a-stdio.o) (_write_r)
/Users/spinal/devkitPro/devkitARM/bin/../lib/gcc/arm-none-eabi/4.9.2/../../../../arm-none-eabi/lib/armv6k/fpu/libsysbase.a(_exit.o)
                              /Users/spinal/devkitPro/devkitARM/bin/../lib/gcc/arm-none-eabi/4.9.2/../../../../arm-none-eabi/lib/armv6k/fpu/libg.a(lib_a-abort.o) (_exit)
/Users/spinal/devkitPro/devkitARM/bin/../lib/gcc/arm-none-eabi/4.9.2/../../../../arm-none-eabi/lib/armv6k/fpu/libsysbase.a(malloc_vars.o)
                              /Users/spinal/devkitPro/libctru/lib/libctru.a(initArgv.o) (fake_heap_start)
/Users/spinal/devkitPro/devkitARM/bin/../lib/gcc/arm-none-eabi/4.9.2/../../../../arm-none-eabi/lib/armv6k/fpu/libsysbase.a(chdir.o)
                              /Users/spinal/devkitPro/libctru/lib/libctru.a(sdmc_dev.o) (chdir)
/Users/spinal/devkitPro/devkitARM/bin/../lib/gcc/arm-none-eabi/4.9.2/../../../../arm-none-eabi/lib/armv6k/fpu/libsysbase.a(flock.o)
                              /Users/spinal/devkitPro/devkitARM/bin/../lib/gcc/arm-none-eabi/4.9.2/../../../../arm-none-eabi/lib/armv6k/fpu/libg.a(lib_a-fclose.o) (__flockfile)
/Users/spinal/devkitPro/devkitARM/bin/../lib/gcc/arm-none-eabi/4.9.2/../../../../arm-none-eabi/lib/armv6k/fpu/libsysbase.a(syscall_support.o)
                              /Users/spinal/devkitPro/libctru/lib/libctru.a(initSystem.o) (__syscalls)
/Users/spinal/devkitPro/devkitARM/bin/../lib/gcc/arm-none-eabi/4.9.2/../../../../arm-none-eabi/lib/armv6k/fpu/libsysbase.a(handle_manager.o)
                              /Users/spinal/devkitPro/devkitARM/bin/../lib/gcc/arm-none-eabi/4.9.2/../../../../arm-none-eabi/lib/armv6k/fpu/libsysbase.a(close.o) (__release_handle)
/Users/spinal/devkitPro/devkitARM/bin/../lib/gcc/arm-none-eabi/4.9.2/../../../../arm-none-eabi/lib/armv6k/fpu/libsysbase.a(dirent.o)
                              C64.o (opendir)
/Users/spinal/devkitPro/devkitARM/bin/../lib/gcc/arm-none-eabi/4.9.2/../../../../arm-none-eabi/lib/armv6k/fpu/libsysbase.a(getreent.o)
                              1541d64.o (__getreent)
/Users/spinal/devkitPro/devkitARM/bin/../lib/gcc/arm-none-eabi/4.9.2/armv6k/fpu/libgcc.a(_divsi3.o)
                              /Users/spinal/devkitPro/devkitARM/bin/../lib/gcc/arm-none-eabi/4.9.2/../../../../arm-none-eabi/lib/armv6k/fpu/libg.a(lib_a-fvwrite.o) (__aeabi_idiv)
/Users/spinal/devkitPro/devkitARM/bin/../lib/gcc/arm-none-eabi/4.9.2/armv6k/fpu/libgcc.a(_aeabi_uldivmod.o)
                              /Users/spinal/devkitPro/devkitARM/bin/../lib/gcc/arm-none-eabi/4.9.2/../../../../arm-none-eabi/lib/armv6k/fpu/libg.a(lib_a-svfprintf.o) (__aeabi_uldivmod)
/Users/spinal/devkitPro/devkitARM/bin/../lib/gcc/arm-none-eabi/4.9.2/armv6k/fpu/libgcc.a(bpabi.o)
                              /Users/spinal/devkitPro/devkitARM/bin/../lib/gcc/arm-none-eabi/4.9.2/armv6k/fpu/libgcc.a(_aeabi_uldivmod.o) (__gnu_uldivmod_helper)
/Users/spinal/devkitPro/devkitARM/bin/../lib/gcc/arm-none-eabi/4.9.2/armv6k/fpu/libgcc.a(_divdi3.o)
                              /Users/spinal/devkitPro/devkitARM/bin/../lib/gcc/arm-none-eabi/4.9.2/armv6k/fpu/libgcc.a(bpabi.o) (__divdi3)
/Users/spinal/devkitPro/devkitARM/bin/../lib/gcc/arm-none-eabi/4.9.2/armv6k/fpu/libgcc.a(_udivdi3.o)
                              /Users/spinal/devkitPro/devkitARM/bin/../lib/gcc/arm-none-eabi/4.9.2/armv6k/fpu/libgcc.a(bpabi.o) (__udivdi3)
/Users/spinal/devkitPro/devkitARM/bin/../lib/gcc/arm-none-eabi/4.9.2/../../../../arm-none-eabi/lib/armv6k/fpu/libg.a(lib_a-errno.o)
                              /Users/spinal/devkitPro/devkitARM/bin/../lib/gcc/arm-none-eabi/4.9.2/../../../../arm-none-eabi/lib/armv6k/fpu/libsysbase.a(handle_manager.o) (__errno)
/Users/spinal/devkitPro/devkitARM/bin/../lib/gcc/arm-none-eabi/4.9.2/../../../../arm-none-eabi/lib/armv6k/fpu/libg.a(lib_a-strnlen.o)
                              /Users/spinal/devkitPro/devkitARM/bin/../lib/gcc/arm-none-eabi/4.9.2/../../../../arm-none-eabi/lib/armv6k/fpu/libsysbase.a(chdir.o) (strnlen)
/Users/spinal/devkitPro/devkitARM/bin/../lib/gcc/arm-none-eabi/4.9.2/../../../../arm-none-eabi/lib/armv6k/fpu/libg.a(lib_a-strrchr.o)
                              /Users/spinal/devkitPro/devkitARM/bin/../lib/gcc/arm-none-eabi/4.9.2/../../../../arm-none-eabi/lib/armv6k/fpu/libsysbase.a(chdir.o) (strrchr)

Allocating common symbols
Common symbol       size              file

hidMemHandle        0x4               /Users/spinal/devkitPro/libctru/lib/libctru.a(hid.o)
__heapBase          0x4               /Users/spinal/devkitPro/libctru/lib/libctru.a(allocateHeaps.o)
aptEventHandlerThread
                    0x4               /Users/spinal/devkitPro/libctru/lib/libctru.a(apt.o)
hidHandle           0x4               /Users/spinal/devkitPro/libctru/lib/libctru.a(hid.o)
gspEventStack       0x1000            /Users/spinal/devkitPro/libctru/lib/libctru.a(gsp.o)
gfxBottomFramebuffers
                    0x8               /Users/spinal/devkitPro/libctru/lib/libctru.a(gfx.o)
gspSharedMemHandle  0x4               /Users/spinal/devkitPro/libctru/lib/libctru.a(gfx.o)
__system_argv       0x4               /Users/spinal/devkitPro/libctru/lib/libctru.a(initArgv.o)
hidSharedMem        0x4               /Users/spinal/devkitPro/libctru/lib/libctru.a(hid.o)
__system_argc       0x4               /Users/spinal/devkitPro/libctru/lib/libctru.a(initArgv.o)
bottomFramebufferInfo
                    0x1c              /Users/spinal/devkitPro/libctru/lib/libctru.a(gfx.o)
__linear_heap       0x4               /Users/spinal/devkitPro/libctru/lib/libctru.a(allocateHeaps.o)
aptParameters       0x1000            /Users/spinal/devkitPro/libctru/lib/libctru.a(apt.o)
aptEventHandlerStack
                    0x1000            /Users/spinal/devkitPro/libctru/lib/libctru.a(apt.o)
aptuHandle          0x4               /Users/spinal/devkitPro/libctru/lib/libctru.a(apt.o)
irrstHandle         0x4               /Users/spinal/devkitPro/libctru/lib/libctru.a(irrst.o)
aptEvents           0xc               /Users/spinal/devkitPro/libctru/lib/libctru.a(apt.o)
gspEventThread      0x4               /Users/spinal/devkitPro/libctru/lib/libctru.a(gsp.o)
gspEvent            0x4               /Users/spinal/devkitPro/libctru/lib/libctru.a(gfx.o)
hidEvents           0x14              /Users/spinal/devkitPro/libctru/lib/libctru.a(hid.o)
__system_retAddr    0x4               /Users/spinal/devkitPro/libctru/lib/libctru.a(initSystem.o)
irrstEvent          0x4               /Users/spinal/devkitPro/libctru/lib/libctru.a(irrst.o)
gspEventCounts      0x1c              /Users/spinal/devkitPro/libctru/lib/libctru.a(gsp.o)
irrstMemHandle      0x4               /Users/spinal/devkitPro/libctru/lib/libctru.a(irrst.o)
gfxTopLeftFramebuffers
                    0x8               /Users/spinal/devkitPro/libctru/lib/libctru.a(gfx.o)
gfxTopRightFramebuffers
                    0x8               /Users/spinal/devkitPro/libctru/lib/libctru.a(gfx.o)
topFramebufferInfo  0x1c              /Users/spinal/devkitPro/libctru/lib/libctru.a(gfx.o)
gspEvents           0x1c              /Users/spinal/devkitPro/libctru/lib/libctru.a(gsp.o)
gfxThreadID         0x1               /Users/spinal/devkitPro/libctru/lib/libctru.a(gfx.o)
gfxSharedMemory     0x4               /Users/spinal/devkitPro/libctru/lib/libctru.a(gfx.o)
gspRunEvents        0x1               /Users/spinal/devkitPro/libctru/lib/libctru.a(gsp.o)
irrstSharedMem      0x4               /Users/spinal/devkitPro/libctru/lib/libctru.a(irrst.o)
aptStatusMutex      0x4               /Users/spinal/devkitPro/libctru/lib/libctru.a(apt.o)
gxCmdBuf            0x4               /Users/spinal/devkitPro/libctru/lib/libctru.a(gx.o)
aptLockHandle       0x4               /Users/spinal/devkitPro/libctru/lib/libctru.a(apt.o)
currentAppId        0x2               /Users/spinal/devkitPro/libctru/lib/libctru.a(apt.o)

Discarded input sections

 .comment       0x00000000       0x23 /Users/spinal/devkitPro/devkitARM/bin/../lib/gcc/arm-none-eabi/4.9.2/armv6k/fpu/crtbegin.o
 .group         0x00000000        0x8 1541d64.o
 .comment       0x00000000       0x23 1541d64.o
 .comment       0x00000000       0x23 1541job.o
 .comment       0x00000000       0x23 1541t64.o
 .comment       0x00000000       0x23 C64.o
 .group         0x00000000        0x8 CIA.o
 .comment       0x00000000       0x23 CIA.o
 .comment       0x00000000       0x23 CPU1541.o
 .group         0x00000000        0x8 CPUC64.o
 .comment       0x00000000       0x23 CPUC64.o
 .comment       0x00000000       0x23 CPU_common.o
 .comment       0x00000000       0x23 Display.o
 .comment       0x00000000       0x23 IEC.o
 .comment       0x00000000       0x23 Prefs.o
 .comment       0x00000000       0x23 REU.o
 .comment       0x00000000       0x23 SAM.o
 .comment       0x00000000       0x23 SID.o
 .comment       0x00000000       0x23 VIC.o
 .comment       0x00000000       0x23 file.o
 .comment       0x00000000       0x23 main.o
 .comment       0x00000000       0x23 sound9.o
 .comment       0x00000000       0x23 /Users/spinal/devkitPro/libctru/lib/libctru.a(gfx.o)
 .comment       0x00000000       0x23 /Users/spinal/devkitPro/libctru/lib/libctru.a(srv.o)
 .comment       0x00000000       0x23 /Users/spinal/devkitPro/libctru/lib/libctru.a(apt.o)
 .comment       0x00000000       0x23 /Users/spinal/devkitPro/libctru/lib/libctru.a(fs.o)
 .comment       0x00000000       0x23 /Users/spinal/devkitPro/libctru/lib/libctru.a(gsp.o)
 .comment       0x00000000       0x23 /Users/spinal/devkitPro/libctru/lib/libctru.a(gx.o)
 .comment       0x00000000       0x23 /Users/spinal/devkitPro/libctru/lib/libctru.a(hid.o)
 .comment       0x00000000       0x23 /Users/spinal/devkitPro/libctru/lib/libctru.a(irrst.o)
 .comment       0x00000000       0x23 /Users/spinal/devkitPro/libctru/lib/libctru.a(initArgv.o)
 .comment       0x00000000       0x23 /Users/spinal/devkitPro/libctru/lib/libctru.a(initSystem.o)
 .comment       0x00000000       0x23 /Users/spinal/devkitPro/libctru/lib/libctru.a(linear.o)
 .comment       0x00000000       0x23 /Users/spinal/devkitPro/libctru/lib/libctru.a(mem_pool.o)
 .comment       0x00000000       0x23 /Users/spinal/devkitPro/libctru/lib/libctru.a(vram.o)
 .comment       0x00000000       0x23 /Users/spinal/devkitPro/libctru/lib/libctru.a(os.o)
 .comment       0x00000000       0x23 /Users/spinal/devkitPro/libctru/lib/libctru.a(rbtree_find.o)
 .comment       0x00000000       0x23 /Users/spinal/devkitPro/libctru/lib/libctru.a(rbtree_init.o)
 .comment       0x00000000       0x23 /Users/spinal/devkitPro/libctru/lib/libctru.a(rbtree_insert.o)
 .comment       0x00000000       0x23 /Users/spinal/devkitPro/libctru/lib/libctru.a(rbtree_remove.o)
 .comment       0x00000000       0x23 /Users/spinal/devkitPro/libctru/lib/libctru.a(rbtree_rotate.o)
 .comment       0x00000000       0x23 /Users/spinal/devkitPro/libctru/lib/libctru.a(allocateHeaps.o)
 .comment       0x00000000       0x23 /Users/spinal/devkitPro/libctru/lib/libctru.a(appExit.o)
 .comment       0x00000000       0x23 /Users/spinal/devkitPro/libctru/lib/libctru.a(appInit.o)
 .comment       0x00000000       0x23 /Users/spinal/devkitPro/libctru/lib/libctru.a(ctru_exit.o)
 .comment       0x00000000       0x23 /Users/spinal/devkitPro/libctru/lib/libctru.a(sdmc_dev.o)
 .comment       0x00000000       0x23 /Users/spinal/devkitPro/libctru/lib/libctru.a(rbtree_iterator.o)
 .comment       0x00000000       0x23 /Users/spinal/devkitPro/libctru/lib/libctru.a(decode_utf8.o)
 .comment       0x00000000       0x23 /Users/spinal/devkitPro/libctru/lib/libctru.a(utf16_to_utf8.o)
 .comment       0x00000000       0x23 /Users/spinal/devkitPro/libctru/lib/libctru.a(utf8_to_utf16.o)
 .comment       0x00000000       0x23 /Users/spinal/devkitPro/libctru/lib/libctru.a(decode_utf16.o)
 .comment       0x00000000       0x23 /Users/spinal/devkitPro/libctru/lib/libctru.a(encode_utf16.o)
 .comment       0x00000000       0x23 /Users/spinal/devkitPro/libctru/lib/libctru.a(encode_utf8.o)
 .comment       0x00000000       0x23 /Users/spinal/devkitPro/devkitARM/bin/../lib/gcc/arm-none-eabi/4.9.2/../../../../arm-none-eabi/lib/armv6k/fpu/libstdc++.a(del_op.o)
 .comment       0x00000000       0x23 /Users/spinal/devkitPro/devkitARM/bin/../lib/gcc/arm-none-eabi/4.9.2/../../../../arm-none-eabi/lib/armv6k/fpu/libstdc++.a(del_opv.o)
 .comment       0x00000000       0x23 /Users/spinal/devkitPro/devkitARM/bin/../lib/gcc/arm-none-eabi/4.9.2/../../../../arm-none-eabi/lib/armv6k/fpu/libstdc++.a(guard.o)
 .comment       0x00000000       0x23 /Users/spinal/devkitPro/devkitARM/bin/../lib/gcc/arm-none-eabi/4.9.2/../../../../arm-none-eabi/lib/armv6k/fpu/libstdc++.a(guard_error.o)
 .comment       0x00000000       0x23 /Users/spinal/devkitPro/devkitARM/bin/../lib/gcc/arm-none-eabi/4.9.2/../../../../arm-none-eabi/lib/armv6k/fpu/libstdc++.a(new_op.o)
 .comment       0x00000000       0x23 /Users/spinal/devkitPro/devkitARM/bin/../lib/gcc/arm-none-eabi/4.9.2/../../../../arm-none-eabi/lib/armv6k/fpu/libstdc++.a(new_opv.o)
 .comment       0x00000000       0x23 /Users/spinal/devkitPro/devkitARM/bin/../lib/gcc/arm-none-eabi/4.9.2/../../../../arm-none-eabi/lib/armv6k/fpu/libstdc++.a(pure.o)
 .comment       0x00000000       0x23 /Users/spinal/devkitPro/devkitARM/bin/../lib/gcc/arm-none-eabi/4.9.2/../../../../arm-none-eabi/lib/armv6k/fpu/libstdc++.a(si_class_type_info.o)
 .comment       0x00000000       0x23 /Users/spinal/devkitPro/devkitARM/bin/../lib/gcc/arm-none-eabi/4.9.2/../../../../arm-none-eabi/lib/armv6k/fpu/libstdc++.a(tinfo.o)
 .comment       0x00000000       0x23 /Users/spinal/devkitPro/devkitARM/bin/../lib/gcc/arm-none-eabi/4.9.2/../../../../arm-none-eabi/lib/armv6k/fpu/libstdc++.a(bad_alloc.o)
 .comment       0x00000000       0x23 /Users/spinal/devkitPro/devkitARM/bin/../lib/gcc/arm-none-eabi/4.9.2/../../../../arm-none-eabi/lib/armv6k/fpu/libstdc++.a(class_type_info.o)
 .comment       0x00000000       0x23 /Users/spinal/devkitPro/devkitARM/bin/../lib/gcc/arm-none-eabi/4.9.2/../../../../arm-none-eabi/lib/armv6k/fpu/libstdc++.a(eh_alloc.o)
 .comment       0x00000000       0x23 /Users/spinal/devkitPro/devkitARM/bin/../lib/gcc/arm-none-eabi/4.9.2/../../../../arm-none-eabi/lib/armv6k/fpu/libstdc++.a(eh_arm.o)
 .comment       0x00000000       0x23 /Users/spinal/devkitPro/devkitARM/bin/../lib/gcc/arm-none-eabi/4.9.2/../../../../arm-none-eabi/lib/armv6k/fpu/libstdc++.a(eh_call.o)
 .comment       0x00000000       0x23 /Users/spinal/devkitPro/devkitARM/bin/../lib/gcc/arm-none-eabi/4.9.2/../../../../arm-none-eabi/lib/armv6k/fpu/libstdc++.a(eh_catch.o)
 .comment       0x00000000       0x23 /Users/spinal/devkitPro/devkitARM/bin/../lib/gcc/arm-none-eabi/4.9.2/../../../../arm-none-eabi/lib/armv6k/fpu/libstdc++.a(eh_exception.o)
 .comment       0x00000000       0x23 /Users/spinal/devkitPro/devkitARM/bin/../lib/gcc/arm-none-eabi/4.9.2/../../../../arm-none-eabi/lib/armv6k/fpu/libstdc++.a(eh_globals.o)
 .comment       0x00000000       0x23 /Users/spinal/devkitPro/devkitARM/bin/../lib/gcc/arm-none-eabi/4.9.2/../../../../arm-none-eabi/lib/armv6k/fpu/libstdc++.a(eh_personality.o)
 .comment       0x00000000       0x23 /Users/spinal/devkitPro/devkitARM/bin/../lib/gcc/arm-none-eabi/4.9.2/../../../../arm-none-eabi/lib/armv6k/fpu/libstdc++.a(eh_terminate.o)
 .comment       0x00000000       0x23 /Users/spinal/devkitPro/devkitARM/bin/../lib/gcc/arm-none-eabi/4.9.2/../../../../arm-none-eabi/lib/armv6k/fpu/libstdc++.a(eh_throw.o)
 .comment       0x00000000       0x23 /Users/spinal/devkitPro/devkitARM/bin/../lib/gcc/arm-none-eabi/4.9.2/../../../../arm-none-eabi/lib/armv6k/fpu/libstdc++.a(eh_unex_handler.o)
 .comment       0x00000000       0x23 /Users/spinal/devkitPro/devkitARM/bin/../lib/gcc/arm-none-eabi/4.9.2/../../../../arm-none-eabi/lib/armv6k/fpu/libstdc++.a(new_handler.o)
 .comment       0x00000000       0x23 /Users/spinal/devkitPro/devkitARM/bin/../lib/gcc/arm-none-eabi/4.9.2/../../../../arm-none-eabi/lib/armv6k/fpu/libstdc++.a(eh_term_handler.o)
 .comment       0x00000000       0x23 /Users/spinal/devkitPro/devkitARM/bin/../lib/gcc/arm-none-eabi/4.9.2/../../../../arm-none-eabi/lib/armv6k/fpu/libstdc++.a(vterminate.o)
 .comment       0x00000000       0x23 /Users/spinal/devkitPro/devkitARM/bin/../lib/gcc/arm-none-eabi/4.9.2/../../../../arm-none-eabi/lib/armv6k/fpu/libstdc++.a(cp-demangle.o)
 .comment       0x00000000       0x23 /Users/spinal/devkitPro/devkitARM/bin/../lib/gcc/arm-none-eabi/4.9.2/../../../../arm-none-eabi/lib/armv6k/fpu/libstdc++.a(eh_type.o)
 .comment       0x00000000       0x23 /Users/spinal/devkitPro/devkitARM/bin/../lib/gcc/arm-none-eabi/4.9.2/../../../../arm-none-eabi/lib/armv6k/fpu/libm.a(lib_a-s_cos.o)
 .comment       0x00000000       0x23 /Users/spinal/devkitPro/devkitARM/bin/../lib/gcc/arm-none-eabi/4.9.2/../../../../arm-none-eabi/lib/armv6k/fpu/libm.a(lib_a-s_sin.o)
 .comment       0x00000000       0x23 /Users/spinal/devkitPro/devkitARM/bin/../lib/gcc/arm-none-eabi/4.9.2/../../../../arm-none-eabi/lib/armv6k/fpu/libm.a(lib_a-e_rem_pio2.o)
 .comment       0x00000000       0x23 /Users/spinal/devkitPro/devkitARM/bin/../lib/gcc/arm-none-eabi/4.9.2/../../../../arm-none-eabi/lib/armv6k/fpu/libm.a(lib_a-k_cos.o)
 .comment       0x00000000       0x23 /Users/spinal/devkitPro/devkitARM/bin/../lib/gcc/arm-none-eabi/4.9.2/../../../../arm-none-eabi/lib/armv6k/fpu/libm.a(lib_a-k_rem_pio2.o)
 .comment       0x00000000       0x23 /Users/spinal/devkitPro/devkitARM/bin/../lib/gcc/arm-none-eabi/4.9.2/../../../../arm-none-eabi/lib/armv6k/fpu/libm.a(lib_a-k_sin.o)
 .comment       0x00000000       0x23 /Users/spinal/devkitPro/devkitARM/bin/../lib/gcc/arm-none-eabi/4.9.2/../../../../arm-none-eabi/lib/armv6k/fpu/libm.a(lib_a-s_fabs.o)
 .comment       0x00000000       0x23 /Users/spinal/devkitPro/devkitARM/bin/../lib/gcc/arm-none-eabi/4.9.2/../../../../arm-none-eabi/lib/armv6k/fpu/libm.a(lib_a-s_floor.o)
 .comment       0x00000000       0x23 /Users/spinal/devkitPro/devkitARM/bin/../lib/gcc/arm-none-eabi/4.9.2/../../../../arm-none-eabi/lib/armv6k/fpu/libm.a(lib_a-s_scalbn.o)
 .comment       0x00000000       0x23 /Users/spinal/devkitPro/devkitARM/bin/../lib/gcc/arm-none-eabi/4.9.2/../../../../arm-none-eabi/lib/armv6k/fpu/libm.a(lib_a-s_copysign.o)
 .comment       0x00000000       0x23 /Users/spinal/devkitPro/devkitARM/bin/../lib/gcc/arm-none-eabi/4.9.2/armv6k/fpu/libgcc.a(unwind-arm.o)
 .comment       0x00000000       0x23 /Users/spinal/devkitPro/devkitARM/bin/../lib/gcc/arm-none-eabi/4.9.2/armv6k/fpu/libgcc.a(pr-support.o)
 .comment       0x00000000       0x23 /Users/spinal/devkitPro/devkitARM/bin/../lib/gcc/arm-none-eabi/4.9.2/../../../../arm-none-eabi/lib/armv6k/fpu/libg.a(lib_a-abort.o)
 .comment       0x00000000       0x23 /Users/spinal/devkitPro/devkitARM/bin/../lib/gcc/arm-none-eabi/4.9.2/../../../../arm-none-eabi/lib/armv6k/fpu/libg.a(lib_a-atoi.o)
 .comment       0x00000000       0x23 /Users/spinal/devkitPro/devkitARM/bin/../lib/gcc/arm-none-eabi/4.9.2/../../../../arm-none-eabi/lib/armv6k/fpu/libg.a(lib_a-bsearch.o)
 .comment       0x00000000       0x23 /Users/spinal/devkitPro/devkitARM/bin/../lib/gcc/arm-none-eabi/4.9.2/../../../../arm-none-eabi/lib/armv6k/fpu/libg.a(lib_a-fclose.o)
 .comment       0x00000000       0x23 /Users/spinal/devkitPro/devkitARM/bin/../lib/gcc/arm-none-eabi/4.9.2/../../../../arm-none-eabi/lib/armv6k/fpu/libg.a(lib_a-fflush.o)
 .comment       0x00000000       0x23 /Users/spinal/devkitPro/devkitARM/bin/../lib/gcc/arm-none-eabi/4.9.2/../../../../arm-none-eabi/lib/armv6k/fpu/libg.a(lib_a-fgetc.o)
 .comment       0x00000000       0x23 /Users/spinal/devkitPro/devkitARM/bin/../lib/gcc/arm-none-eabi/4.9.2/../../../../arm-none-eabi/lib/armv6k/fpu/libg.a(lib_a-fgets.o)
 .comment       0x00000000       0x23 /Users/spinal/devkitPro/devkitARM/bin/../lib/gcc/arm-none-eabi/4.9.2/../../../../arm-none-eabi/lib/armv6k/fpu/libg.a(lib_a-findfp.o)
 .comment       0x00000000       0x23 /Users/spinal/devkitPro/devkitARM/bin/../lib/gcc/arm-none-eabi/4.9.2/../../../../arm-none-eabi/lib/armv6k/fpu/libg.a(lib_a-fini.o)
 .comment       0x00000000       0x23 /Users/spinal/devkitPro/devkitARM/bin/../lib/gcc/arm-none-eabi/4.9.2/../../../../arm-none-eabi/lib/armv6k/fpu/libg.a(lib_a-fopen.o)
 .comment       0x00000000       0x23 /Users/spinal/devkitPro/devkitARM/bin/../lib/gcc/arm-none-eabi/4.9.2/../../../../arm-none-eabi/lib/armv6k/fpu/libg.a(lib_a-fprintf.o)
 .comment       0x00000000       0x23 /Users/spinal/devkitPro/devkitARM/bin/../lib/gcc/arm-none-eabi/4.9.2/../../../../arm-none-eabi/lib/armv6k/fpu/libg.a(lib_a-fputc.o)
 .comment       0x00000000       0x23 /Users/spinal/devkitPro/devkitARM/bin/../lib/gcc/arm-none-eabi/4.9.2/../../../../arm-none-eabi/lib/armv6k/fpu/libg.a(lib_a-fputs.o)
 .comment       0x00000000       0x23 /Users/spinal/devkitPro/devkitARM/bin/../lib/gcc/arm-none-eabi/4.9.2/../../../../arm-none-eabi/lib/armv6k/fpu/libg.a(lib_a-fread.o)
 .comment       0x00000000       0x23 /Users/spinal/devkitPro/devkitARM/bin/../lib/gcc/arm-none-eabi/4.9.2/../../../../arm-none-eabi/lib/armv6k/fpu/libg.a(lib_a-freer.o)
 .comment       0x00000000       0x23 /Users/spinal/devkitPro/devkitARM/bin/../lib/gcc/arm-none-eabi/4.9.2/../../../../arm-none-eabi/lib/armv6k/fpu/libg.a(lib_a-fscanf.o)
 .comment       0x00000000       0x23 /Users/spinal/devkitPro/devkitARM/bin/../lib/gcc/arm-none-eabi/4.9.2/../../../../arm-none-eabi/lib/armv6k/fpu/libg.a(lib_a-fseek.o)
 .comment       0x00000000       0x23 /Users/spinal/devkitPro/devkitARM/bin/../lib/gcc/arm-none-eabi/4.9.2/../../../../arm-none-eabi/lib/armv6k/fpu/libg.a(lib_a-fseeko.o)
 .comment       0x00000000       0x23 /Users/spinal/devkitPro/devkitARM/bin/../lib/gcc/arm-none-eabi/4.9.2/../../../../arm-none-eabi/lib/armv6k/fpu/libg.a(lib_a-ftell.o)
 .comment       0x00000000       0x23 /Users/spinal/devkitPro/devkitARM/bin/../lib/gcc/arm-none-eabi/4.9.2/../../../../arm-none-eabi/lib/armv6k/fpu/libg.a(lib_a-ftello.o)
 .comment       0x00000000       0x23 /Users/spinal/devkitPro/devkitARM/bin/../lib/gcc/arm-none-eabi/4.9.2/../../../../arm-none-eabi/lib/armv6k/fpu/libg.a(lib_a-fvwrite.o)
 .comment       0x00000000       0x23 /Users/spinal/devkitPro/devkitARM/bin/../lib/gcc/arm-none-eabi/4.9.2/../../../../arm-none-eabi/lib/armv6k/fpu/libg.a(lib_a-fwalk.o)
 .comment       0x00000000       0x23 /Users/spinal/devkitPro/devkitARM/bin/../lib/gcc/arm-none-eabi/4.9.2/../../../../arm-none-eabi/lib/armv6k/fpu/libg.a(lib_a-fwrite.o)
 .comment       0x00000000       0x23 /Users/spinal/devkitPro/devkitARM/bin/../lib/gcc/arm-none-eabi/4.9.2/../../../../arm-none-eabi/lib/armv6k/fpu/libg.a(lib_a-impure.o)
 .comment       0x00000000       0x23 /Users/spinal/devkitPro/devkitARM/bin/../lib/gcc/arm-none-eabi/4.9.2/../../../../arm-none-eabi/lib/armv6k/fpu/libg.a(lib_a-init.o)
 .comment       0x00000000       0x23 /Users/spinal/devkitPro/devkitARM/bin/../lib/gcc/arm-none-eabi/4.9.2/../../../../arm-none-eabi/lib/armv6k/fpu/libg.a(lib_a-iprintf.o)
 .comment       0x00000000       0x23 /Users/spinal/devkitPro/devkitARM/bin/../lib/gcc/arm-none-eabi/4.9.2/../../../../arm-none-eabi/lib/armv6k/fpu/libg.a(lib_a-makebuf.o)
 .comment       0x00000000       0x23 /Users/spinal/devkitPro/devkitARM/bin/../lib/gcc/arm-none-eabi/4.9.2/../../../../arm-none-eabi/lib/armv6k/fpu/libg.a(lib_a-malloc.o)
 .comment       0x00000000       0x23 /Users/spinal/devkitPro/devkitARM/bin/../lib/gcc/arm-none-eabi/4.9.2/../../../../arm-none-eabi/lib/armv6k/fpu/libg.a(lib_a-mallocr.o)
 .comment       0x00000000       0x23 /Users/spinal/devkitPro/devkitARM/bin/../lib/gcc/arm-none-eabi/4.9.2/../../../../arm-none-eabi/lib/armv6k/fpu/libg.a(lib_a-memchr.o)
 .comment       0x00000000       0x23 /Users/spinal/devkitPro/devkitARM/bin/../lib/gcc/arm-none-eabi/4.9.2/../../../../arm-none-eabi/lib/armv6k/fpu/libg.a(lib_a-memcmp.o)
 .comment       0x00000000       0x23 /Users/spinal/devkitPro/devkitARM/bin/../lib/gcc/arm-none-eabi/4.9.2/../../../../arm-none-eabi/lib/armv6k/fpu/libg.a(lib_a-memcpy.o)
 .comment       0x00000000       0x23 /Users/spinal/devkitPro/devkitARM/bin/../lib/gcc/arm-none-eabi/4.9.2/../../../../arm-none-eabi/lib/armv6k/fpu/libg.a(lib_a-memmove.o)
 .comment       0x00000000       0x23 /Users/spinal/devkitPro/devkitARM/bin/../lib/gcc/arm-none-eabi/4.9.2/../../../../arm-none-eabi/lib/armv6k/fpu/libg.a(lib_a-memset.o)
 .comment       0x00000000       0x23 /Users/spinal/devkitPro/devkitARM/bin/../lib/gcc/arm-none-eabi/4.9.2/../../../../arm-none-eabi/lib/armv6k/fpu/libg.a(lib_a-mlock.o)
 .comment       0x00000000       0x23 /Users/spinal/devkitPro/devkitARM/bin/../lib/gcc/arm-none-eabi/4.9.2/../../../../arm-none-eabi/lib/armv6k/fpu/libg.a(lib_a-printf.o)
 .comment       0x00000000       0x23 /Users/spinal/devkitPro/devkitARM/bin/../lib/gcc/arm-none-eabi/4.9.2/../../../../arm-none-eabi/lib/armv6k/fpu/libg.a(lib_a-putc.o)
 .comment       0x00000000       0x23 /Users/spinal/devkitPro/devkitARM/bin/../lib/gcc/arm-none-eabi/4.9.2/../../../../arm-none-eabi/lib/armv6k/fpu/libg.a(lib_a-puts.o)
 .comment       0x00000000       0x23 /Users/spinal/devkitPro/devkitARM/bin/../lib/gcc/arm-none-eabi/4.9.2/../../../../arm-none-eabi/lib/armv6k/fpu/libg.a(lib_a-rand.o)
 .comment       0x00000000       0x23 /Users/spinal/devkitPro/devkitARM/bin/../lib/gcc/arm-none-eabi/4.9.2/../../../../arm-none-eabi/lib/armv6k/fpu/libg.a(lib_a-realloc.o)
 .comment       0x00000000       0x23 /Users/spinal/devkitPro/devkitARM/bin/../lib/gcc/arm-none-eabi/4.9.2/../../../../arm-none-eabi/lib/armv6k/fpu/libg.a(lib_a-reallocr.o)
 .comment       0x00000000       0x23 /Users/spinal/devkitPro/devkitARM/bin/../lib/gcc/arm-none-eabi/4.9.2/../../../../arm-none-eabi/lib/armv6k/fpu/libg.a(lib_a-refill.o)
 .comment       0x00000000       0x23 /Users/spinal/devkitPro/devkitARM/bin/../lib/gcc/arm-none-eabi/4.9.2/../../../../arm-none-eabi/lib/armv6k/fpu/libg.a(lib_a-remove.o)
 .comment       0x00000000       0x23 /Users/spinal/devkitPro/devkitARM/bin/../lib/gcc/arm-none-eabi/4.9.2/../../../../arm-none-eabi/lib/armv6k/fpu/libg.a(lib_a-rget.o)
 .comment       0x00000000       0x23 /Users/spinal/devkitPro/devkitARM/bin/../lib/gcc/arm-none-eabi/4.9.2/../../../../arm-none-eabi/lib/armv6k/fpu/libg.a(lib_a-signal.o)
 .comment       0x00000000       0x23 /Users/spinal/devkitPro/devkitARM/bin/../lib/gcc/arm-none-eabi/4.9.2/../../../../arm-none-eabi/lib/armv6k/fpu/libg.a(lib_a-sprintf.o)
 .comment       0x00000000       0x23 /Users/spinal/devkitPro/devkitARM/bin/../lib/gcc/arm-none-eabi/4.9.2/../../../../arm-none-eabi/lib/armv6k/fpu/libg.a(lib_a-sscanf.o)
 .comment       0x00000000       0x23 /Users/spinal/devkitPro/devkitARM/bin/../lib/gcc/arm-none-eabi/4.9.2/../../../../arm-none-eabi/lib/armv6k/fpu/libg.a(lib_a-stdio.o)
 .comment       0x00000000       0x23 /Users/spinal/devkitPro/devkitARM/bin/../lib/gcc/arm-none-eabi/4.9.2/../../../../arm-none-eabi/lib/armv6k/fpu/libg.a(lib_a-stpcpy.o)
 .comment       0x00000000       0x23 /Users/spinal/devkitPro/devkitARM/bin/../lib/gcc/arm-none-eabi/4.9.2/../../../../arm-none-eabi/lib/armv6k/fpu/libg.a(lib_a-strcasecmp.o)
 .comment       0x00000000       0x23 /Users/spinal/devkitPro/devkitARM/bin/../lib/gcc/arm-none-eabi/4.9.2/../../../../arm-none-eabi/lib/armv6k/fpu/libg.a(lib_a-strchr.o)
 .comment       0x00000000       0x23 /Users/spinal/devkitPro/devkitARM/bin/../lib/gcc/arm-none-eabi/4.9.2/../../../../arm-none-eabi/lib/armv6k/fpu/libg.a(lib_a-strcpy.o)
 .comment       0x00000000       0x23 /Users/spinal/devkitPro/devkitARM/bin/../lib/gcc/arm-none-eabi/4.9.2/../../../../arm-none-eabi/lib/armv6k/fpu/libg.a(lib_a-strlen.o)
 .comment       0x00000000       0x23 /Users/spinal/devkitPro/devkitARM/bin/../lib/gcc/arm-none-eabi/4.9.2/../../../../arm-none-eabi/lib/armv6k/fpu/libg.a(lib_a-strncat.o)
 .comment       0x00000000       0x23 /Users/spinal/devkitPro/devkitARM/bin/../lib/gcc/arm-none-eabi/4.9.2/../../../../arm-none-eabi/lib/armv6k/fpu/libg.a(lib_a-strncmp.o)
 .comment       0x00000000       0x23 /Users/spinal/devkitPro/devkitARM/bin/../lib/gcc/arm-none-eabi/4.9.2/../../../../arm-none-eabi/lib/armv6k/fpu/libg.a(lib_a-strncpy.o)
 .comment       0x00000000       0x23 /Users/spinal/devkitPro/devkitARM/bin/../lib/gcc/arm-none-eabi/4.9.2/../../../../arm-none-eabi/lib/armv6k/fpu/libg.a(lib_a-strtol.o)
 .comment       0x00000000       0x23 /Users/spinal/devkitPro/devkitARM/bin/../lib/gcc/arm-none-eabi/4.9.2/../../../../arm-none-eabi/lib/armv6k/fpu/libg.a(lib_a-svfprintf.o)
 .comment       0x00000000       0x23 /Users/spinal/devkitPro/devkitARM/bin/../lib/gcc/arm-none-eabi/4.9.2/../../../../arm-none-eabi/lib/armv6k/fpu/libg.a(lib_a-svfscanf.o)
 .comment       0x00000000       0x23 /Users/spinal/devkitPro/devkitARM/bin/../lib/gcc/arm-none-eabi/4.9.2/../../../../arm-none-eabi/lib/armv6k/fpu/libg.a(lib_a-sysstat.o)
 .comment       0x00000000       0x23 /Users/spinal/devkitPro/devkitARM/bin/../lib/gcc/arm-none-eabi/4.9.2/../../../../arm-none-eabi/lib/armv6k/fpu/libg.a(lib_a-syswrite.o)
 .comment       0x00000000       0x23 /Users/spinal/devkitPro/devkitARM/bin/../lib/gcc/arm-none-eabi/4.9.2/../../../../arm-none-eabi/lib/armv6k/fpu/libg.a(lib_a-vfiprintf.o)
 .comment       0x00000000       0x23 /Users/spinal/devkitPro/devkitARM/bin/../lib/gcc/arm-none-eabi/4.9.2/../../../../arm-none-eabi/lib/armv6k/fpu/libg.a(lib_a-vfprintf.o)
 .comment       0x00000000       0x23 /Users/spinal/devkitPro/devkitARM/bin/../lib/gcc/arm-none-eabi/4.9.2/../../../../arm-none-eabi/lib/armv6k/fpu/libg.a(lib_a-vfscanf.o)
 .comment       0x00000000       0x23 /Users/spinal/devkitPro/devkitARM/bin/../lib/gcc/arm-none-eabi/4.9.2/../../../../arm-none-eabi/lib/armv6k/fpu/libg.a(lib_a-wbuf.o)
 .comment       0x00000000       0x23 /Users/spinal/devkitPro/devkitARM/bin/../lib/gcc/arm-none-eabi/4.9.2/../../../../arm-none-eabi/lib/armv6k/fpu/libg.a(lib_a-wcrtomb.o)
 .comment       0x00000000       0x23 /Users/spinal/devkitPro/devkitARM/bin/../lib/gcc/arm-none-eabi/4.9.2/../../../../arm-none-eabi/lib/armv6k/fpu/libg.a(lib_a-wcsrtombs.o)
 .comment       0x00000000       0x23 /Users/spinal/devkitPro/devkitARM/bin/../lib/gcc/arm-none-eabi/4.9.2/../../../../arm-none-eabi/lib/armv6k/fpu/libg.a(lib_a-wctomb_r.o)
 .comment       0x00000000       0x23 /Users/spinal/devkitPro/devkitARM/bin/../lib/gcc/arm-none-eabi/4.9.2/../../../../arm-none-eabi/lib/armv6k/fpu/libg.a(lib_a-wsetup.o)
 .comment       0x00000000       0x23 /Users/spinal/devkitPro/devkitARM/bin/../lib/gcc/arm-none-eabi/4.9.2/../../../../arm-none-eabi/lib/armv6k/fpu/libg.a(lib_a-ctype_.o)
 .comment       0x00000000       0x23 /Users/spinal/devkitPro/devkitARM/bin/../lib/gcc/arm-none-eabi/4.9.2/../../../../arm-none-eabi/lib/armv6k/fpu/libg.a(lib_a-dtoa.o)
 .comment       0x00000000       0x23 /Users/spinal/devkitPro/devkitARM/bin/../lib/gcc/arm-none-eabi/4.9.2/../../../../arm-none-eabi/lib/armv6k/fpu/libg.a(lib_a-flags.o)
 .comment       0x00000000       0x23 /Users/spinal/devkitPro/devkitARM/bin/../lib/gcc/arm-none-eabi/4.9.2/../../../../arm-none-eabi/lib/armv6k/fpu/libg.a(lib_a-fputwc.o)
 .comment       0x00000000       0x23 /Users/spinal/devkitPro/devkitARM/bin/../lib/gcc/arm-none-eabi/4.9.2/../../../../arm-none-eabi/lib/armv6k/fpu/libg.a(lib_a-iswspace.o)
 .comment       0x00000000       0x23 /Users/spinal/devkitPro/devkitARM/bin/../lib/gcc/arm-none-eabi/4.9.2/../../../../arm-none-eabi/lib/armv6k/fpu/libg.a(lib_a-jp2uc.o)
 .comment       0x00000000       0x23 /Users/spinal/devkitPro/devkitARM/bin/../lib/gcc/arm-none-eabi/4.9.2/../../../../arm-none-eabi/lib/armv6k/fpu/libg.a(lib_a-locale.o)
 .comment       0x00000000       0x23 /Users/spinal/devkitPro/devkitARM/bin/../lib/gcc/arm-none-eabi/4.9.2/../../../../arm-none-eabi/lib/armv6k/fpu/libg.a(lib_a-mbrtowc.o)
 .comment       0x00000000       0x23 /Users/spinal/devkitPro/devkitARM/bin/../lib/gcc/arm-none-eabi/4.9.2/../../../../arm-none-eabi/lib/armv6k/fpu/libg.a(lib_a-mbtowc_r.o)
 .comment       0x00000000       0x23 /Users/spinal/devkitPro/devkitARM/bin/../lib/gcc/arm-none-eabi/4.9.2/../../../../arm-none-eabi/lib/armv6k/fpu/libg.a(lib_a-mprec.o)
 .comment       0x00000000       0x23 /Users/spinal/devkitPro/devkitARM/bin/../lib/gcc/arm-none-eabi/4.9.2/../../../../arm-none-eabi/lib/armv6k/fpu/libg.a(lib_a-s_fpclassify.o)
 .comment       0x00000000       0x23 /Users/spinal/devkitPro/devkitARM/bin/../lib/gcc/arm-none-eabi/4.9.2/../../../../arm-none-eabi/lib/armv6k/fpu/libg.a(lib_a-s_frexp.o)
 .comment       0x00000000       0x23 /Users/spinal/devkitPro/devkitARM/bin/../lib/gcc/arm-none-eabi/4.9.2/../../../../arm-none-eabi/lib/armv6k/fpu/libg.a(lib_a-sccl.o)
 .comment       0x00000000       0x23 /Users/spinal/devkitPro/devkitARM/bin/../lib/gcc/arm-none-eabi/4.9.2/../../../../arm-none-eabi/lib/armv6k/fpu/libg.a(lib_a-sf_nan.o)
 .comment       0x00000000       0x23 /Users/spinal/devkitPro/devkitARM/bin/../lib/gcc/arm-none-eabi/4.9.2/../../../../arm-none-eabi/lib/armv6k/fpu/libg.a(lib_a-stpncpy.o)
 .comment       0x00000000       0x23 /Users/spinal/devkitPro/devkitARM/bin/../lib/gcc/arm-none-eabi/4.9.2/../../../../arm-none-eabi/lib/armv6k/fpu/libg.a(lib_a-strcat.o)
 .comment       0x00000000       0x23 /Users/spinal/devkitPro/devkitARM/bin/../lib/gcc/arm-none-eabi/4.9.2/../../../../arm-none-eabi/lib/armv6k/fpu/libg.a(lib_a-strlcpy.o)
 .comment       0x00000000       0x23 /Users/spinal/devkitPro/devkitARM/bin/../lib/gcc/arm-none-eabi/4.9.2/../../../../arm-none-eabi/lib/armv6k/fpu/libg.a(lib_a-strncasecmp.o)
 .comment       0x00000000       0x23 /Users/spinal/devkitPro/devkitARM/bin/../lib/gcc/arm-none-eabi/4.9.2/../../../../arm-none-eabi/lib/armv6k/fpu/libg.a(lib_a-strtod.o)
 .comment       0x00000000       0x23 /Users/spinal/devkitPro/devkitARM/bin/../lib/gcc/arm-none-eabi/4.9.2/../../../../arm-none-eabi/lib/armv6k/fpu/libg.a(lib_a-strtoll_r.o)
 .comment       0x00000000       0x23 /Users/spinal/devkitPro/devkitARM/bin/../lib/gcc/arm-none-eabi/4.9.2/../../../../arm-none-eabi/lib/armv6k/fpu/libg.a(lib_a-strtoul.o)
 .comment       0x00000000       0x23 /Users/spinal/devkitPro/devkitARM/bin/../lib/gcc/arm-none-eabi/4.9.2/../../../../arm-none-eabi/lib/armv6k/fpu/libg.a(lib_a-strtoull_r.o)
 .comment       0x00000000       0x23 /Users/spinal/devkitPro/devkitARM/bin/../lib/gcc/arm-none-eabi/4.9.2/../../../../arm-none-eabi/lib/armv6k/fpu/libg.a(lib_a-svfiprintf.o)
 .comment       0x00000000       0x23 /Users/spinal/devkitPro/devkitARM/bin/../lib/gcc/arm-none-eabi/4.9.2/../../../../arm-none-eabi/lib/armv6k/fpu/libg.a(lib_a-svfiscanf.o)
 .comment       0x00000000       0x23 /Users/spinal/devkitPro/devkitARM/bin/../lib/gcc/arm-none-eabi/4.9.2/../../../../arm-none-eabi/lib/armv6k/fpu/libg.a(lib_a-ungetc.o)
 .comment       0x00000000       0x23 /Users/spinal/devkitPro/devkitARM/bin/../lib/gcc/arm-none-eabi/4.9.2/../../../../arm-none-eabi/lib/armv6k/fpu/libg.a(lib_a-wcsnrtombs.o)
 .comment       0x00000000       0x23 /Users/spinal/devkitPro/devkitARM/bin/../lib/gcc/arm-none-eabi/4.9.2/../../../../arm-none-eabi/lib/armv6k/fpu/libg.a(lib_a-callocr.o)
 .comment       0x00000000       0x23 /Users/spinal/devkitPro/devkitARM/bin/../lib/gcc/arm-none-eabi/4.9.2/../../../../arm-none-eabi/lib/armv6k/fpu/libg.a(lib_a-gdtoa-gethex.o)
 .comment       0x00000000       0x23 /Users/spinal/devkitPro/devkitARM/bin/../lib/gcc/arm-none-eabi/4.9.2/../../../../arm-none-eabi/lib/armv6k/fpu/libg.a(lib_a-gdtoa-hexnan.o)
 .comment       0x00000000       0x23 /Users/spinal/devkitPro/devkitARM/bin/../lib/gcc/arm-none-eabi/4.9.2/../../../../arm-none-eabi/lib/armv6k/fpu/libg.a(lib_a-getenv_r.o)
 .comment       0x00000000       0x23 /Users/spinal/devkitPro/devkitARM/bin/../lib/gcc/arm-none-eabi/4.9.2/../../../../arm-none-eabi/lib/armv6k/fpu/libg.a(lib_a-environ.o)
 .comment       0x00000000       0x23 /Users/spinal/devkitPro/devkitARM/bin/../lib/gcc/arm-none-eabi/4.9.2/../../../../arm-none-eabi/lib/armv6k/fpu/libg.a(lib_a-envlock.o)
 .comment       0x00000000       0x23 /Users/spinal/devkitPro/devkitARM/bin/../lib/gcc/arm-none-eabi/4.9.2/../../../../arm-none-eabi/lib/armv6k/fpu/libsysbase.a(iosupport.o)
 .comment       0x00000000       0x23 /Users/spinal/devkitPro/devkitARM/bin/../lib/gcc/arm-none-eabi/4.9.2/../../../../arm-none-eabi/lib/armv6k/fpu/libsysbase.a(close.o)
 .comment       0x00000000       0x23 /Users/spinal/devkitPro/devkitARM/bin/../lib/gcc/arm-none-eabi/4.9.2/../../../../arm-none-eabi/lib/armv6k/fpu/libsysbase.a(fstat.o)
 .comment       0x00000000       0x23 /Users/spinal/devkitPro/devkitARM/bin/../lib/gcc/arm-none-eabi/4.9.2/../../../../arm-none-eabi/lib/armv6k/fpu/libsysbase.a(getpid.o)
 .comment       0x00000000       0x23 /Users/spinal/devkitPro/devkitARM/bin/../lib/gcc/arm-none-eabi/4.9.2/../../../../arm-none-eabi/lib/armv6k/fpu/libsysbase.a(isatty.o)
 .comment       0x00000000       0x23 /Users/spinal/devkitPro/devkitARM/bin/../lib/gcc/arm-none-eabi/4.9.2/../../../../arm-none-eabi/lib/armv6k/fpu/libsysbase.a(kill.o)
 .comment       0x00000000       0x23 /Users/spinal/devkitPro/devkitARM/bin/../lib/gcc/arm-none-eabi/4.9.2/../../../../arm-none-eabi/lib/armv6k/fpu/libsysbase.a(lseek.o)
 .comment       0x00000000       0x23 /Users/spinal/devkitPro/devkitARM/bin/../lib/gcc/arm-none-eabi/4.9.2/../../../../arm-none-eabi/lib/armv6k/fpu/libsysbase.a(open.o)
 .comment       0x00000000       0x23 /Users/spinal/devkitPro/devkitARM/bin/../lib/gcc/arm-none-eabi/4.9.2/../../../../arm-none-eabi/lib/armv6k/fpu/libsysbase.a(read.o)
 .comment       0x00000000       0x23 /Users/spinal/devkitPro/devkitARM/bin/../lib/gcc/arm-none-eabi/4.9.2/../../../../arm-none-eabi/lib/armv6k/fpu/libsysbase.a(sbrk.o)
 .comment       0x00000000       0x23 /Users/spinal/devkitPro/devkitARM/bin/../lib/gcc/arm-none-eabi/4.9.2/../../../../arm-none-eabi/lib/armv6k/fpu/libsysbase.a(stat.o)
 .comment       0x00000000       0x23 /Users/spinal/devkitPro/devkitARM/bin/../lib/gcc/arm-none-eabi/4.9.2/../../../../arm-none-eabi/lib/armv6k/fpu/libsysbase.a(unlink.o)
 .comment       0x00000000       0x23 /Users/spinal/devkitPro/devkitARM/bin/../lib/gcc/arm-none-eabi/4.9.2/../../../../arm-none-eabi/lib/armv6k/fpu/libsysbase.a(write.o)
 .comment       0x00000000       0x23 /Users/spinal/devkitPro/devkitARM/bin/../lib/gcc/arm-none-eabi/4.9.2/../../../../arm-none-eabi/lib/armv6k/fpu/libsysbase.a(_exit.o)
 .comment       0x00000000       0x23 /Users/spinal/devkitPro/devkitARM/bin/../lib/gcc/arm-none-eabi/4.9.2/../../../../arm-none-eabi/lib/armv6k/fpu/libsysbase.a(malloc_vars.o)
 .comment       0x00000000       0x23 /Users/spinal/devkitPro/devkitARM/bin/../lib/gcc/arm-none-eabi/4.9.2/../../../../arm-none-eabi/lib/armv6k/fpu/libsysbase.a(chdir.o)
 .comment       0x00000000       0x23 /Users/spinal/devkitPro/devkitARM/bin/../lib/gcc/arm-none-eabi/4.9.2/../../../../arm-none-eabi/lib/armv6k/fpu/libsysbase.a(flock.o)
 .comment       0x00000000       0x23 /Users/spinal/devkitPro/devkitARM/bin/../lib/gcc/arm-none-eabi/4.9.2/../../../../arm-none-eabi/lib/armv6k/fpu/libsysbase.a(syscall_support.o)
 .comment       0x00000000       0x23 /Users/spinal/devkitPro/devkitARM/bin/../lib/gcc/arm-none-eabi/4.9.2/../../../../arm-none-eabi/lib/armv6k/fpu/libsysbase.a(handle_manager.o)
 .comment       0x00000000       0x23 /Users/spinal/devkitPro/devkitARM/bin/../lib/gcc/arm-none-eabi/4.9.2/../../../../arm-none-eabi/lib/armv6k/fpu/libsysbase.a(dirent.o)
 .comment       0x00000000       0x23 /Users/spinal/devkitPro/devkitARM/bin/../lib/gcc/arm-none-eabi/4.9.2/../../../../arm-none-eabi/lib/armv6k/fpu/libsysbase.a(getreent.o)
 .comment       0x00000000       0x23 /Users/spinal/devkitPro/devkitARM/bin/../lib/gcc/arm-none-eabi/4.9.2/armv6k/fpu/libgcc.a(bpabi.o)
 .comment       0x00000000       0x23 /Users/spinal/devkitPro/devkitARM/bin/../lib/gcc/arm-none-eabi/4.9.2/armv6k/fpu/libgcc.a(_divdi3.o)
 .comment       0x00000000       0x23 /Users/spinal/devkitPro/devkitARM/bin/../lib/gcc/arm-none-eabi/4.9.2/armv6k/fpu/libgcc.a(_udivdi3.o)
 .comment       0x00000000       0x23 /Users/spinal/devkitPro/devkitARM/bin/../lib/gcc/arm-none-eabi/4.9.2/../../../../arm-none-eabi/lib/armv6k/fpu/libg.a(lib_a-errno.o)
 .comment       0x00000000       0x23 /Users/spinal/devkitPro/devkitARM/bin/../lib/gcc/arm-none-eabi/4.9.2/../../../../arm-none-eabi/lib/armv6k/fpu/libg.a(lib_a-strnlen.o)
 .comment       0x00000000       0x23 /Users/spinal/devkitPro/devkitARM/bin/../lib/gcc/arm-none-eabi/4.9.2/../../../../arm-none-eabi/lib/armv6k/fpu/libg.a(lib_a-strrchr.o)
 .comment       0x00000000       0x23 /Users/spinal/devkitPro/devkitARM/bin/../lib/gcc/arm-none-eabi/4.9.2/armv6k/fpu/crtend.o

Memory Configuration

Name             Origin             Length             Attributes
*default*        0x00000000         0xffffffff

Linker script and memory map

                0x00100000                . = 0x100000
                0x00100000                __start__ = .

.text           0x00100000    0x64690
 *(.crt0)
 .crt0          0x00100000       0x94 /Users/spinal/devkitPro/devkitARM/bin/../lib/gcc/arm-none-eabi/4.9.2/../../../../arm-none-eabi/lib/armv6k/fpu/3dsx_crt0.o
                0x00100000                _start
                0x00100008                __service_ptr
                0x0010000c                __apt_appid
                0x00100010                __heap_size
                0x00100014                __linear_heap_size
                0x00100018                __system_arglist
                0x0010001c                __system_runflags
 *(.init)
 .init          0x00100094        0xc /Users/spinal/devkitPro/devkitARM/bin/../lib/gcc/arm-none-eabi/4.9.2/armv6k/fpu/crti.o
                0x00100094                _init
 .init          0x001000a0        0xc /Users/spinal/devkitPro/devkitARM/bin/../lib/gcc/arm-none-eabi/4.9.2/armv6k/fpu/crtn.o
                0x001000ac                . = ALIGN (0x4)
 *(.text)
 .text          0x001000ac        0x0 /Users/spinal/devkitPro/devkitARM/bin/../lib/gcc/arm-none-eabi/4.9.2/../../../../arm-none-eabi/lib/armv6k/fpu/3dsx_crt0.o
 .text          0x001000ac        0x0 /Users/spinal/devkitPro/devkitARM/bin/../lib/gcc/arm-none-eabi/4.9.2/armv6k/fpu/crti.o
 .text          0x001000ac      0x108 /Users/spinal/devkitPro/devkitARM/bin/../lib/gcc/arm-none-eabi/4.9.2/armv6k/fpu/crtbegin.o
 .text          0x001001b4        0x0 1541.ROM.bin.o
 .text          0x001001b4        0x0 BASIC.ROM.bin.o
 .text          0x001001b4        0x0 C64_Keyboard.bin.o
 .text          0x001001b4        0x0 CHAR.ROM.bin.o
 .text          0x001001b4        0x0 KERNAL.ROM.bin.o
 .text          0x001001b4        0x0 myfont.bin.o
 .text          0x001001b4        0x0 myfont1.bin.o
 .text          0x001001b4     0x3198 1541d64.o
                0x00100524                ImageDrive::buffer_pointer_cmd(int, int)
                0x00100840                ImageDrive::mem_write_cmd(unsigned short, unsigned char, unsigned char*)
                0x00100a44                ImageDrive::mem_read_cmd(unsigned short, unsigned char)
                0x00100b00                ImageDrive::open_file_ts(int, int, int)
                0x00100b80                ImageDrive::close_all_channels()
                0x00100be0                ImageDrive::alloc_buffer(int)
                0x00100c20                ImageDrive::open_direct(int, unsigned char const*)
                0x00100cd4                ImageDrive::free_buffer(int)
                0x00100ce8                ImageDrive::is_block_free(int, int)
                0x00100d1c                ImageDrive::num_free_blocks(int)
                0x00100d28                ImageDrive::alloc_block(int, int)
                0x00100dcc                ImageDrive::block_allocate_cmd(int, int)
                0x00100ea4                ImageDrive::free_block(int, int)
                0x00100f48                ImageDrive::block_free_cmd(int, int)
                0x00100f78                ImageDrive::alloc_next_block(int&, int&, int)
                0x00101160                sectors_per_track(image_file_desc const&, int)
                0x00101170                error_info_for_sector(image_file_desc&, int, int)
                0x00101190                ImageDrive::read_sector(int, int, unsigned char*)
                0x001011e8                ImageDrive::open_directory(unsigned char const*, int)
                0x001015e4                ImageDrive::Read(int, unsigned char&)
                0x001017a4                ImageDrive::find_file(unsigned char const*, int, int&, int&, int&, bool)
                0x00101898                ImageDrive::find_first_file(unsigned char const*, int, int&, int&, int&)
                0x001018c4                ImageDrive::find_next_file(unsigned char const*, int, int&, int&, int&)
                0x001018f0                ImageDrive::alloc_block_chain(int, int)
                0x00101950                ImageDrive::free_block_chain(int, int)
                0x001019b0                ImageDrive::block_read_cmd(int, int, int, bool)
                0x00101a30                ImageDrive::new_cmd(unsigned char const*, int, unsigned char const*)
                0x00101af4                ImageDrive::write_sector(int, int, unsigned char*)
                0x00101b4c                ImageDrive::close_image()
                0x00101ba4                ImageDrive::~ImageDrive()
                0x00101ba4                ImageDrive::~ImageDrive()
                0x00101bc4                ImageDrive::~ImageDrive()
                0x00101bec                ImageDrive::change_image(char const*)
                0x00101c94                ImageDrive::Close(int)
                0x00101e88                ImageDrive::Write(int, unsigned char, bool)
                0x00102088                ImageDrive::Reset()
                0x00102118                ImageDrive::ImageDrive(IEC*, char const*)
                0x00102118                ImageDrive::ImageDrive(IEC*, char const*)
                0x0010219c                ImageDrive::alloc_dir_entry(int&, int&, int&)
                0x001022e4                ImageDrive::create_file(int, unsigned char const*, int, int, bool)
                0x001024a8                ImageDrive::open_file(int, unsigned char const*, int)
                0x0010283c                ImageDrive::Open(int, unsigned char const*, int)
                0x00102908                ImageDrive::copy_cmd(unsigned char const*, int, unsigned char const*, int)
                0x00102af0                ImageDrive::block_write_cmd(int, int, int, bool)
                0x00102bd4                ImageDrive::rename_cmd(unsigned char const*, int, unsigned char const*, int)
                0x00102cdc                ImageDrive::scratch_cmd(unsigned char const*, int)
                0x00102ea8                ImageDrive::initialize_cmd()
                0x00102ef4                ImageDrive::validate_cmd()
                0x00103020                IsImageFile(char const*, unsigned char const*, long)
                0x00103080                CreateImageFile(char const*)
                0x00103134                ReadImageDirectory(char const*, std::vector<c64_dir_entry, std::allocator<c64_dir_entry> >&)
 .text          0x0010334c      0x9cc 1541job.o
                0x0010334c                Job1541::~Job1541()
                0x0010334c                Job1541::~Job1541()
                0x00103384                Job1541::close_d64_file()
                0x001033ac                Job1541::read_sector(int, int, unsigned char*)
                0x00103430                Job1541::write_sector(int, int, unsigned char*)
                0x001034b4                Job1541::secnum_from_ts(int, int)
                0x001034cc                Job1541::offset_from_ts(int, int)
                0x00103514                Job1541::gcr_conv4(unsigned char*, unsigned char*)
                0x001035fc                Job1541::sector2gcr(int, int)
                0x0010379c                Job1541::WriteSector()
                0x001037f4                Job1541::FormatTrack()
                0x001038ac                Job1541::disk2gcr()
                0x001038fc                Job1541::open_d64_file(char*)
                0x00103aac                Job1541::Job1541(unsigned char*)
                0x00103aac                Job1541::Job1541(unsigned char*)
                0x00103b18                Job1541::NewPrefs(Prefs*)
                0x00103bac                Job1541::MoveHeadOut()
                0x00103c18                Job1541::MoveHeadIn()
                0x00103c84                Job1541::GetState(Job1541State*)
                0x00103cb4                Job1541::SetState(Job1541State*)
 .text          0x00103d18     0x14c0 1541t64.o
                0x00103d18                ArchDrive::initialize_cmd()
                0x00103d50                ArchDrive::validate_cmd()
                0x001043b4                ArchDrive::Reset()
                0x001043fc                ArchDrive::Read(int, unsigned char&)
                0x001044a0                ArchDrive::Write(int, unsigned char, bool)
                0x00104530                ArchDrive::Close(int)
                0x00104598                ArchDrive::~ArchDrive()
                0x00104598                ArchDrive::~ArchDrive()
                0x00104620                ArchDrive::~ArchDrive()
                0x0010463c                ArchDrive::change_arch(char const*)
                0x001047c8                ArchDrive::ArchDrive(IEC*, char const*)
                0x001047c8                ArchDrive::ArchDrive(IEC*, char const*)
                0x00104844                ArchDrive::find_first_file(unsigned char const*, int, int&)
                0x001048f8                ArchDrive::open_file(int, unsigned char const*, int)
                0x00104b4c                ArchDrive::rename_cmd(unsigned char const*, int, unsigned char const*, int)
                0x00104bc0                ArchDrive::open_directory(int, unsigned char const*, int)
                0x00104f7c                ArchDrive::Open(int, unsigned char const*, int)
                0x0010504c                ArchDrive::close_all_channels()
                0x00105084                IsArchFile(char const*, unsigned char const*, long)
                0x001050ec                ReadArchDirectory(char const*, c64_dir_entry**)
 .text          0x001051d8     0x1dd4 C64.o
                0x001051d8                C64::C64()
                0x001051d8                C64::C64()
                0x00105458                C64::~C64()
                0x00105458                C64::~C64()
                0x0010558c                C64::Reset()
                0x001055c8                C64::NMI()
                0x001055d0                C64::PatchKernal(bool, bool)
                0x00105824                C64::NewPrefs(Prefs*)
                0x00105914                C64::SaveRAM(char*)
                0x0010599c                C64::SaveCPUState(__sFILE*)
                0x00105a2c                C64::LoadCPUState(__sFILE*)
                0x00105abc                C64::Save1541State(__sFILE*)
                0x00105b3c                C64::Load1541State(__sFILE*)
                0x00105bb4                C64::SaveVICState(__sFILE*)
                0x00105bf4                C64::LoadVICState(__sFILE*)
                0x00105c44                C64::SaveSIDState(__sFILE*)
                0x00105c84                C64::LoadSIDState(__sFILE*)
                0x00105ce0                C64::SaveCIAState(__sFILE*)
                0x00105d5c                C64::LoadCIAState(__sFILE*)
                0x00105dfc                C64::Save1541JobState(__sFILE*)
                0x00105e3c                C64::Load1541JobState(__sFILE*)
                0x00105e98                C64::SaveSnapshot(char*)
                0x00105f88                C64::LoadSnapshot(char*)
                0x001061d8                GetTicks()
                0x001061e0                Pause(unsigned int)
                0x001061e4                readFileList()
                0x0010632c                usleep
                0x00106334                C64::c64_ctor1()
                0x00106338                C64::c64_ctor2()
                0x0010633c                C64::c64_dtor()
                0x00106340                poll_input()
                0x00106344                kbd_buf_feed(char*)
                0x00106368                kbd_buf_update(C64*)
                0x001063b4                load_prg(C64*, unsigned char*, int)
                0x00106400                C64::open_close_joysticks(int, int, int, int)
                0x00106404                C64::poll_joystick(int)
                0x00106b08                C64::VBlank(bool)
                0x00106bc0                C64::thread_func()
                0x00106f10                C64::Run()
                0x00106f84                C64::Pause()
                0x00106f98                C64::Resume()
 .text          0x00106fac      0xe58 CIA.o
                0x00106fac                MOS6526_1::TriggerInterrupt(int)
                0x00106fe4                MOS6526_2::TriggerInterrupt(int)
                0x00107028                MOS6526::MOS6526(MOS6510*)
                0x00107028                MOS6526::MOS6526(MOS6510*)
                0x0010703c                MOS6526_1::MOS6526_1(MOS6510*, MOS6569*)
                0x0010703c                MOS6526_1::MOS6526_1(MOS6510*, MOS6569*)
                0x00107054                MOS6526_2::MOS6526_2(MOS6510*, MOS6569*, MOS6502_1541*)
                0x00107054                MOS6526_2::MOS6526_2(MOS6510*, MOS6569*, MOS6502_1541*)
                0x00107074                MOS6526::Reset()
                0x001070ec                MOS6526_1::Reset()
                0x0010719c                MOS6526_2::Reset()
                0x0010722c                MOS6526::GetState(MOS6526State*)
                0x001072f0                MOS6526::SetState(MOS6526State*)
                0x001073f0                MOS6526_1::ReadRegister(unsigned short)
                0x00107620                MOS6526_2::ReadRegister(unsigned short)
                0x00107754                MOS6526_1::WriteRegister(unsigned short, unsigned char)
                0x00107a00                MOS6526_2::WriteRegister(unsigned short, unsigned char)
                0x00107cdc                MOS6526::CountTOD()
 .text          0x00107e04     0x54b4 CPU1541.o
                0x00107e04                MOS6502_1541::MOS6502_1541(C64*, Job1541*, C64Display*, unsigned char*, unsigned char*)
                0x00107e04                MOS6502_1541::MOS6502_1541(C64*, Job1541*, C64Display*, unsigned char*, unsigned char*)
                0x00107e8c                MOS6502_1541::AsyncReset()
                0x00107ea0                MOS6502_1541::read_byte(unsigned short)
                0x00108204                MOS6502_1541::write_byte_io(unsigned short, unsigned char)
                0x00108548                MOS6502_1541::ExtReadByte(unsigned short)
                0x0010854c                MOS6502_1541::ExtWriteByte(unsigned short, unsigned char)
                0x00108574                MOS6502_1541::do_adc(unsigned char)
                0x00108664                MOS6502_1541::do_sbc(unsigned char)
                0x00108744                MOS6502_1541::GetState(MOS6502State*)
                0x001088f4                MOS6502_1541::Reset()
                0x0010897c                MOS6502_1541::jump(unsigned short)
                0x001089fc                MOS6502_1541::SetState(MOS6502State*)
                0x00108b84                MOS6502_1541::illegal_op(unsigned char, unsigned short)
                0x00108bb8                MOS6502_1541::illegal_jump(unsigned short, unsigned short)
                0x00108bec                MOS6502_1541::EmulateLine(int)
 .text          0x0010d2b8     0xc52c CPUC64.o
                0x0010d310                MOS6510::MOS6510(C64*, unsigned char*, unsigned char*, unsigned char*, unsigned char*, unsigned char*)
                0x0010d310                MOS6510::MOS6510(C64*, unsigned char*, unsigned char*, unsigned char*, unsigned char*, unsigned char*)
                0x0010d37c                MOS6510::AsyncReset()
                0x0010d388                MOS6510::AsyncNMI()
                0x0010d39c                MOS6510::new_config()
                0x0010d414                MOS6510::read_byte(unsigned short)
                0x0010d628                MOS6510::read_emulator_id(unsigned short)
                0x0010d69c                MOS6510::write_byte_io(unsigned short, unsigned char)
                0x0010d798                MOS6510::ExtReadByte(unsigned short)
                0x0010da00                MOS6510::ExtWriteByte(unsigned short, unsigned char)
                0x0010da9c                MOS6510::REUReadByte(unsigned short)
                0x0010dcb0                MOS6510::REUWriteByte(unsigned short, unsigned char)
                0x0010dce0                MOS6510::do_adc(unsigned char)
                0x0010ddd0                MOS6510::do_sbc(unsigned char)
                0x0010deb0                MOS6510::GetState(MOS6510State*)
                0x0010dfb0                MOS6510::illegal_jump(unsigned short, unsigned short)
                0x0010dfec                MOS6510::SetState(MOS6510State*)
                0x0010e1a0                MOS6510::Reset()
                0x0010e478                MOS6510::illegal_op(unsigned char, unsigned short)
                0x0010e4b4                MOS6510::EmulateLine(int)
 .text          0x001197e4        0x0 CPU_common.o
 .text          0x001197e4      0xf44 Display.o
                0x001198ec                C64Display::UpdateLEDs(int, int, int, int)
                0x001198f8                dotextmenu()
                0x00119900                C64Display::C64Display(C64*)
                0x00119900                C64Display::C64Display(C64*)
                0x00119908                C64Display::~C64Display()
                0x00119908                C64Display::~C64Display()
                0x0011990c                C64Display::NewPrefs(Prefs*)
                0x00119910                vblankhandler()
                0x00119914                init_graphics()
                0x00119948                WaitForVblank()
                0x0011994c                C64Display::drawPixel(int, int, char, char, char, unsigned char*)
                0x00119978                C64Display::Update()
                0x00119b08                C64Display::mix(int, int, int)
                0x00119b24                C64Display::drawText(int, int, int, int, char*, int, int, bool)
                0x00119df0                C64Display::BufSwap()
                0x00119df4                C64Display::Speedometer(int)
                0x00119df8                C64Display::BitmapBase()
                0x00119e08                C64Display::BitmapXMod()
                0x00119e10                C64Display::KeyPress(int, unsigned char*, unsigned char*)
                0x00119e34                C64Display::KeyRelease(int, unsigned char*, unsigned char*)
                0x00119e58                C64Display::PollKeyboard(unsigned char*, unsigned char*, unsigned char*)
                0x0011a6b8                C64Display::NumLock()
                0x0011a6c0                C64Display::InitColors(unsigned char*)
                0x0011a720                ShowRequester(char*, char*, char*)
 .text          0x0011a728     0x15e0 IEC.o
                0x0011a968                IEC::~IEC()
                0x0011a968                IEC::~IEC()
                0x0011a9a0                IEC::UpdateLEDs()
                0x0011a9fc                IEC::Reset()
                0x0011aa48                IEC::OutATN(unsigned char)
                0x0011ab48                IEC::In(unsigned char&)
                0x0011ab8c                IEC::SetATN()
                0x0011ab90                IEC::RelATN()
                0x0011ab94                IEC::Turnaround()
                0x0011ab98                IEC::Release()
                0x0011ab9c                IEC::listen(int)
                0x0011abec                IEC::talk(int)
                0x0011ac3c                IEC::unlisten()
                0x0011ac4c                IEC::untalk()
                0x0011ac5c                IEC::sec_listen()
                0x0011acc4                IEC::OutSec(unsigned char)
                0x0011ad20                IEC::sec_talk()
                0x0011ad28                IEC::open_out(unsigned char, bool)
                0x0011ada8                IEC::Out(unsigned char, bool)
                0x0011ae08                IEC::data_out(unsigned char, bool)
                0x0011ae30                IEC::data_in(unsigned char&)
                0x0011ae4c                Drive::set_error(int, int, int)
                0x0011aec8                Drive::Drive(IEC*)
                0x0011aec8                Drive::Drive(IEC*)
                0x0011af00                Drive::block_read_cmd(int, int, int, bool)
                0x0011af10                Drive::block_write_cmd(int, int, int, bool)
                0x0011af20                Drive::block_execute_cmd(int, int, int)
                0x0011af30                Drive::block_allocate_cmd(int, int)
                0x0011af40                Drive::block_free_cmd(int, int)
                0x0011af50                Drive::buffer_pointer_cmd(int, int)
                0x0011af60                Drive::mem_write_cmd(unsigned short, unsigned char, unsigned char*)
                0x0011af70                Drive::mem_execute_cmd(unsigned short)
                0x0011af80                Drive::copy_cmd(unsigned char const*, int, unsigned char const*, int)
                0x0011af90                Drive::rename_cmd(unsigned char const*, int, unsigned char const*, int)
                0x0011afa0                Drive::scratch_cmd(unsigned char const*, int)
                0x0011afb0                Drive::position_cmd(unsigned char const*, int)
                0x0011afc0                Drive::initialize_cmd()
                0x0011afd0                Drive::new_cmd(unsigned char const*, int, unsigned char const*)
                0x0011afe0                Drive::validate_cmd()
                0x0011aff0                Drive::mem_read_cmd(unsigned short, unsigned char)
                0x0011b010                Drive::execute_cmd(unsigned char const*, int)
                0x0011b688                Drive::unsupp_cmd()
                0x0011b68c                ascii2petscii(char)
                0x0011b6a0                ascii2petscii(unsigned char*, char const*, int)
                0x0011b6d4                petscii2ascii(unsigned char)
                0x0011b700                Drive::parse_file_name(unsigned char const*, int, unsigned char*, int&, int&, int&, int&, bool)
                0x0011ba50                petscii2ascii(char*, unsigned char const*, int)
                0x0011ba80                IsMountableFile(char const*, int&)
                0x0011bb58                IEC::create_drive(char const*)
                0x0011bbec                IEC::IEC(C64Display*)
                0x0011bbec                IEC::IEC(C64Display*)
                0x0011bc60                IEC::NewPrefs(Prefs*)
 .text          0x0011bd08     0x11d8 Prefs.o
                0x0011bd08                Prefs::operator==(Prefs const&) const
                0x0011bf18                Prefs::operator!=(Prefs const&) const
                0x0011bf2c                Prefs::Check()
                0x0011bf70                Prefs::Load(char*)
                0x0011c7fc                Prefs::Prefs()
                0x0011c7fc                Prefs::Prefs()
                0x0011c94c                Prefs::Save(char*)
 .text          0x0011cee0      0x564 REU.o
                0x0011cee0                REU::open_close_reu(int, int)
                0x0011cf9c                REU::REU(MOS6510*)
                0x0011cf9c                REU::REU(MOS6510*)
                0x0011d00c                REU::~REU()
                0x0011d00c                REU::~REU()
                0x0011d030                REU::NewPrefs(Prefs*)
                0x0011d044                REU::Reset()
                0x0011d08c                REU::ReadRegister(unsigned short)
                0x0011d124                REU::execute_dma()
                0x0011d3ac                REU::WriteRegister(unsigned short, unsigned char)
                0x0011d424                REU::FF00Trigger()
 .text          0x0011d444     0x3d20 SAM.o
                0x0011ebc8                SAM(C64*)
 *fill*         0x00121164        0x4 
 .text          0x00121168     0x1048 SID.o
                0x00121168                DigitalRenderer::~DigitalRenderer()
                0x00121168                DigitalRenderer::~DigitalRenderer()
                0x0012116c                DigitalRenderer::EmulateLine()
                0x00121170                DigitalRenderer::Pause()
                0x00121174                DigitalRenderer::Resume()
                0x00121178                DigitalRenderer::Reset()
                0x00121238                DigitalRenderer::~DigitalRenderer()
                0x0012124c                MOS6581::Reset()
                0x00121288                MOS6581::PauseSound()
                0x001212b0                MOS6581::ResumeSound()
                0x001212d8                MOS6581::GetState(MOS6581State*)
                0x001213bc                MOS6581::SetState(MOS6581State*)
                0x001214cc                DigitalRenderer::DigitalRenderer()
                0x001214cc                DigitalRenderer::DigitalRenderer()
                0x00121550                DigitalRenderer::calc_filter()
                0x00121900                DigitalRenderer::WriteRegister(unsigned short, unsigned char)
                0x00121bdc                DigitalRenderer::NewPrefs(Prefs*)
                0x00121be0                DigitalRenderer::calc_buffer(short*, long)
                0x00122044                DigitalRenderer::init_sound()
                0x00122050                MOS6581::open_close_renderer(int, int)
                0x001220ec                MOS6581::MOS6581(C64*)
                0x001220ec                MOS6581::MOS6581(C64*)
                0x00122134                MOS6581::~MOS6581()
                0x00122134                MOS6581::~MOS6581()
                0x00122158                MOS6581::NewPrefs(Prefs*)
 .text          0x001221b0     0x2878 VIC.o
                0x001222b8                MOS6569::MOS6569(C64*, C64Display*, MOS6510*, unsigned char*, unsigned char*, unsigned char*)
                0x001222b8                MOS6569::MOS6569(C64*, C64Display*, MOS6510*, unsigned char*, unsigned char*, unsigned char*)
                0x00122498                MOS6569::ReInitColors()
                0x00122624                MOS6569::make_mc_table()
                0x00122650                MOS6569::GetState(MOS6569State*)
                0x0012293c                MOS6569::SetState(MOS6569State*)
                0x00122cec                MOS6569::ReadRegister(unsigned short)
                0x00122ef4                MOS6569::WriteRegister(unsigned short, unsigned char)
                0x001233e8                MOS6569::ChangedVA(unsigned short)
                0x00123400                MOS6569::TriggerLightpen()
                0x0012345c                MOS6569::EmulateLine()
 .text          0x00124a28        0x0 file.o
 .text          0x00124a28      0x25c main.o
                0x00124a28                Frodo::load_rom(char const*, char const*, unsigned char*, unsigned int, unsigned char const*)
                0x00124aac                Frodo::load_rom_files()
                0x00124b80                printdbg(char*)
                0x00124b84                Frodo::Frodo()
                0x00124b84                Frodo::Frodo()
                0x00124b90                Frodo::ArgvReceived(int, char**)
                0x00124bac                Frodo::ReadyToRun()
                0x00124bf8                Frodo::reload_prefs()
                0x00124c50                IsDirectory(char const*)
 .text          0x00124c84        0xc sound9.o
                0x00124c84                SoundSystemInit(unsigned int, unsigned int, int, int)
                0x00124c88                SoundStartMixer()
                0x00124c8c                SendCommandToArm7(unsigned int)
 .text          0x00124c90      0x72c /Users/spinal/devkitPro/libctru/lib/libctru.a(gfx.o)
                0x00124d1c                gfxSet3D
                0x00124d2c                gfxSetScreenFormat
                0x00124d44                gfxGetScreenFormat
                0x00124d5c                gfxSetDoubleBuffering
                0x00124d70                gfxSetFramebufferInfo
                0x00124de0                gfxWriteFramebufferInfo
                0x00124ea4                gfxInit
                0x00125084                gfxInitDefault
                0x00125094                gfxExit
                0x00125160                gfxGetFramebuffer
                0x00125210                gfxFlushBuffers
                0x001252ec                gfxSwapBuffers
                0x00125360                gfxSwapBuffersGpu
 .text          0x001253bc      0x3b8 /Users/spinal/devkitPro/libctru/lib/libctru.a(srv.o)
                0x001253bc                __get_handle_from_list
                0x00125454                __destroy_handle_list
                0x001254a8                srvExit
                0x001254d0                srvGetSessionHandle
                0x001254dc                srvRegisterClient
                0x00125514                srvInit
                0x0012557c                srvGetServiceHandle
                0x001255fc                srvRegisterService
                0x00125658                srvUnregisterService
                0x001256a4                srvPmInit
                0x001256f8                srvRegisterProcess
                0x00125740                srvUnregisterProcess
 .text          0x00125774     0x1cf8 /Users/spinal/devkitPro/libctru/lib/libctru.a(apt.o)
                0x001257d8                _aptDebug
                0x001257dc                aptInitCaptureInfo
                0x0012588c                aptWaitStatusEvent
                0x001258b4                aptHook
                0x001258ec                aptUnhook
                0x00125918                aptGetStatus
                0x00125950                aptSetStatus
                0x001259b4                aptGetStatusPower
                0x001259ec                aptSetStatusPower
                0x00125a24                aptOpenSession
                0x00125a48                aptCloseSession
                0x00125a70                aptSignalReadyForSleep
                0x00125a80                APT_GetLockHandle
                0x00125ad0                APT_Initialize
                0x00125b38                APT_Finalize
                0x00125b74                APT_HardwareResetAsync
                0x00125ba8                APT_Enable
                0x00125be4                APT_GetAppletManInfo
                0x00125c64                aptGetMenuAppID
                0x00125ca0                APT_IsRegistered
                0x00125cf0                APT_InquireNotification
                0x00125d40                APT_PrepareToJumpToHomeMenu
                0x00125d74                APT_JumpToHomeMenu
                0x00125dc4                APT_PrepareToJumpToApplication
                0x00125e00                APT_JumpToApplication
                0x00125e50                APT_NotifyToWait
                0x00125e8c                APT_AppletUtility
                0x00125f14                aptAppletUtility_Exit_RetToApp
                0x00126034                aptAppletClosed
                0x00126170                aptInit
                0x00126328                APT_GlanceParameter
                0x0012639c                APT_ReceiveParameter
                0x00126410                APT_SendParameter
                0x00126480                APT_SendCaptureBufferInfo
                0x001264cc                aptReturnToMenu
                0x001266a0                APT_ReplySleepQuery
                0x001266e0                APT_ReplySleepNotificationComplete
                0x0012671c                aptEventHandler
                0x00126a28                APT_PrepareToCloseApplication
                0x00126a64                APT_CloseApplication
                0x00126abc                aptExit
                0x00126ca8                APT_SetAppCpuTimeLimit
                0x00126cec                APT_GetAppCpuTimeLimit
                0x00126d40                APT_CheckNew3DS_Application
                0x00126d9c                APT_CheckNew3DS_System
                0x00126df8                APT_CheckNew3DS
                0x00126e6c                APT_PrepareToDoAppJump
                0x00126eb8                APT_DoAppJump
                0x00126f20                APT_PrepareToStartLibraryApplet
                0x00126f5c                APT_StartLibraryApplet
                0x00126fbc                aptAppletStarted
                0x001270c0                aptMainLoop
                0x00127238                APT_LaunchLibraryApplet
                0x001273d0                APT_PrepareToStartSystemApplet
                0x0012740c                APT_StartSystemApplet
 .text          0x0012746c      0xc88 /Users/spinal/devkitPro/libctru/lib/libctru.a(fs.o)
                0x0012746c                FS_makePath
                0x00127498                fsExit
                0x001274bc                fsGetSessionHandle
                0x001274c8                FSUSER_Initialize
                0x0012753c                fsInit
                0x001275a8                FSUSER_OpenFile
                0x00127654                FSUSER_OpenFileDirectly
                0x00127720                FSUSER_DeleteFile
                0x001277a8                FSUSER_RenameFile
                0x0012786c                FSUSER_DeleteDirectory
                0x001278f4                FSUSER_DeleteDirectoryRecursively
                0x0012797c                FSUSER_CreateFile
                0x00127a14                FSUSER_CreateDirectory
                0x00127aa0                FSUSER_RenameDirectory
                0x00127b64                FSUSER_OpenDirectory
                0x00127bf8                FSUSER_OpenArchive
                0x00127c80                FSUSER_CloseArchive
                0x00127cd8                FSUSER_GetSdmcArchiveResource
                0x00127d54                FSUSER_GetNandArchiveResource
                0x00127dd0                FSUSER_IsSdmcDetected
                0x00127e1c                FSUSER_IsSdmcWritable
                0x00127e68                FSFILE_Close
                0x00127eac                FSFILE_Read
                0x00127f08                FSFILE_Write
                0x00127f6c                FSFILE_GetSize
                0x00127fac                FSFILE_SetSize
                0x00127fd8                FSFILE_GetAttributes
                0x00128010                FSFILE_SetAttributes
                0x00128038                FSFILE_Flush
                0x0012805c                FSDIR_Read
                0x001280b0                FSDIR_Close
 .text          0x001280f4      0x8a0 /Users/spinal/devkitPro/libctru/lib/libctru.a(gsp.o)
                0x001281d8                gspInit
                0x001281ec                gspExit
                0x00128204                gspInitEventHandler
                0x001282d0                gspExitEventHandler
                0x00128328                gspWaitForEvent
                0x00128380                GSPGPU_WriteHWRegs
                0x001283f0                GSPGPU_WriteHWRegsWithMask
                0x0012847c                GSPGPU_ReadHWRegs
                0x001284ec                GSPGPU_SetBufferSwap
                0x00128560                GSPGPU_FlushDataCache
                0x001285b4                GSPGPU_InvalidateDataCache
                0x00128608                GSPGPU_SetLcdForceBlack
                0x00128644                GSPGPU_TriggerCmdReqQueue
                0x00128678                GSPGPU_RegisterInterruptRelayQueue
                0x001286e4                GSPGPU_UnregisterInterruptRelayQueue
                0x00128718                GSPGPU_AcquireRight
                0x00128768                GSPGPU_ReleaseRight
                0x0012879c                GSPGPU_ImportDisplayCaptureInfo
                0x00128820                GSPGPU_SaveVramSysArea
                0x00128854                GSPGPU_RestoreVramSysArea
                0x00128888                GSPGPU_SubmitGxCommand
 .text          0x00128994      0x264 /Users/spinal/devkitPro/libctru/lib/libctru.a(gx.o)
                0x00128994                GX_RequestDma
                0x001289e8                GX_SetCommandList_Last
                0x00128a50                GX_SetMemoryFill
                0x00128ac4                GX_SetDisplayTransfer
                0x00128b28                GX_SetTextureCopy
                0x00128b90                GX_SetCommandList_First
 .text          0x00128bf8      0x6f4 /Users/spinal/devkitPro/libctru/lib/libctru.a(hid.o)
                0x00128bf8                hidExit
                0x00128c9c                hidWaitForEvent
                0x00128cf4                hidCheckSectionUpdateTime
                0x00128d30                hidScanInput
                0x00128f64                hidKeysHeld
                0x00128f74                hidKeysDown
                0x00128f84                hidKeysUp
                0x00128f94                hidTouchRead
                0x00128fac                hidCircleRead
                0x00128fc4                hidAccelRead
                0x00128fe4                hidGyroRead
                0x00129004                HIDUSER_GetHandles
                0x00129094                hidInit
                0x001291c8                HIDUSER_EnableAccelerometer
                0x001291f4                HIDUSER_DisableAccelerometer
                0x00129220                HIDUSER_EnableGyroscope
                0x0012924c                HIDUSER_DisableGyroscope
                0x00129278                HIDUSER_GetGyroscopeRawToDpsCoefficient
                0x001292b4                HIDUSER_GetSoundVolume
 .text          0x001292ec      0x388 /Users/spinal/devkitPro/libctru/lib/libctru.a(irrst.o)
                0x001292ec                irrstWaitForEvent
                0x00129338                irrstCheckSectionUpdateTime
                0x00129374                irrstScanInput
                0x00129428                irrstKeysHeld
                0x00129440                irrstCstickRead
                0x00129458                IRRST_GetHandles
                0x001294a8                IRRST_Initialize
                0x001294e0                irrstInit
                0x001295c4                IRRST_Shutdown
                0x001295f0                irrstExit
 .text          0x00129674       0xf4 /Users/spinal/devkitPro/libctru/lib/libctru.a(initArgv.o)
                0x00129674                __system_initArgv
 .text          0x00129768       0x4c /Users/spinal/devkitPro/libctru/lib/libctru.a(initSystem.o)
                0x00129768                __libctru_init
 *fill*         0x001297b4        0xc 
 .text          0x001297c0      0x460 /Users/spinal/devkitPro/libctru/lib/libctru.a(svc.o)
                0x001297c0                svcControlMemory
                0x001297e0                svcQueryMemory
                0x00129810                svcExitProcess
                0x00129818                svcCreateThread
                0x00129838                svcExitThread
                0x00129840                svcSleepThread
                0x00129848                svcGetThreadPriority
                0x0012985c                svcSetThreadPriority
                0x00129864                svcGetThreadAffinityMask
                0x0012986c                svcSetThreadAffinityMask
                0x00129874                svcGetThreadIdealProcessor
                0x00129888                svcSetThreadIdealProcessor
                0x00129890                svcGetProcessorID
                0x00129898                svcCreateMutex
                0x001298ac                svcReleaseMutex
                0x001298b4                svcCreateSemaphore
                0x001298c8                svcReleaseSemaphore
                0x001298dc                svcCreateEvent
                0x001298f0                svcSignalEvent
                0x001298f8                svcClearEvent
                0x00129900                svcCreateTimer
                0x00129914                svcSetTimer
                0x0012991c                svcCancelTimer
                0x00129924                svcClearTimer
                0x0012992c                svcCreateMemoryBlock
                0x00129944                svcMapMemoryBlock
                0x0012994c                svcUnmapMemoryBlock
                0x00129954                svcCreateAddressArbiter
                0x00129968                svcArbitrateAddress
                0x00129988                svcCloseHandle
                0x00129990                svcWaitSynchronization
                0x00129998                svcWaitSynchronizationN
                0x001299c0                svcDuplicateHandle
                0x001299d4                svcGetSystemTick
                0x001299dc                svcGetSystemInfo
                0x001299f4                svcGetProcessInfo
                0x00129a0c                svcGetThreadInfo
                0x00129a24                svcConnectToPort
                0x00129a38                svcSendSyncRequest
                0x00129a40                svcOpenProcess
                0x00129a54                svcOpenThread
                0x00129a68                svcGetProcessId
                0x00129a7c                svcGetProcessIdOfThread
                0x00129a90                svcGetThreadId
                0x00129aa4                svcBreak
                0x00129aac                svcOutputDebugString
                0x00129ab4                svcCreatePort
                0x00129ad4                svcAcceptSession
                0x00129aec                svcReplyAndReceive
                0x00129b04                svcInvalidateProcessDataCache
                0x00129b0c                svcFlushProcessDataCache
                0x00129b14                svcStartInterProcessDma
                0x00129b34                svcStopDma
                0x00129b3c                svcGetDmaState
                0x00129b50                svcDebugActiveProcess
                0x00129b64                svcBreakDebugProcess
                0x00129b6c                svcTerminateDebugProcess
                0x00129b74                svcGetProcessDebugEvent
                0x00129b7c                svcContinueDebugEvent
                0x00129b84                svcGetProcessList
                0x00129ba4                svcReadProcessMemory
                0x00129bac                svcWriteProcessMemory
                0x00129bb4                svcControlProcessMemory
                0x00129bcc                svcMapProcessMemory
                0x00129bd4                svcUnmapProcessMemory
                0x00129bdc                svcTerminateProcess
                0x00129be4                svcBackdoor
                0x00129bec                svcKernelSetState
                0x00129bf4                svcQueryProcessMemory
 .text          0x00129c20       0x64 /Users/spinal/devkitPro/libctru/lib/libctru.a(stack_adjust.o)
                0x00129c20                initSystem
                0x00129c64                __ctru_exit
 .text          0x00129c84      0x1d4 /Users/spinal/devkitPro/libctru/lib/libctru.a(linear.o)
                0x00129cac                linearMemAlign
                0x00129dec                linearAlloc
                0x00129df4                linearRealloc
                0x00129dfc                linearFree
                0x00129e4c                linearSpaceFree
 .text          0x00129e58      0x35c /Users/spinal/devkitPro/libctru/lib/libctru.a(mem_pool.o)
                0x00129e58                MemPool::CoalesceRight(MemBlock*)
                0x00129ef8                MemPool::Allocate(MemChunk&, unsigned long, int)
                0x0012a080                MemPool::Deallocate(MemChunk const&)
                0x0012a184                MemPool::GetFreeSpace()
 .text          0x0012a1b4      0x1c4 /Users/spinal/devkitPro/libctru/lib/libctru.a(vram.o)
                0x0012a1dc                vramMemAlign
                0x0012a30c                vramAlloc
                0x0012a314                vramRealloc
                0x0012a31c                vramFree
                0x0012a36c                vramSpaceFree
 .text          0x0012a378      0x288 /Users/spinal/devkitPro/libctru/lib/libctru.a(os.o)
                0x0012a3d0                osConvertVirtToPhys
                0x0012a41c                osConvertOldLINEARMemToNew
                0x0012a43c                __libctru_gtod
                0x0012a534                osGetTime
                0x0012a5a8                osGetFirmVersion
                0x0012a5bc                osGetKernelVersion
                0x0012a5d0                osStrError
                0x0012a5f0                osGetWifiStrength
 .text          0x0012a600       0x70 /Users/spinal/devkitPro/libctru/lib/libctru.a(rbtree_find.o)
                0x0012a600                rbtree_find
 .text          0x0012a670       0x14 /Users/spinal/devkitPro/libctru/lib/libctru.a(rbtree_init.o)
                0x0012a670                rbtree_init
 .text          0x0012a684      0x1f4 /Users/spinal/devkitPro/libctru/lib/libctru.a(rbtree_insert.o)
                0x0012a868                rbtree_insert
                0x0012a870                rbtree_insert_multi
 .text          0x0012a878      0x340 /Users/spinal/devkitPro/libctru/lib/libctru.a(rbtree_remove.o)
                0x0012a878                rbtree_remove
 .text          0x0012abb8       0xac /Users/spinal/devkitPro/libctru/lib/libctru.a(rbtree_rotate.o)
                0x0012abb8                rbtree_rotate
 .text          0x0012ac64       0xa4 /Users/spinal/devkitPro/libctru/lib/libctru.a(allocateHeaps.o)
                0x0012ac64                __system_allocateHeaps
 .text          0x0012ad08       0x1c /Users/spinal/devkitPro/libctru/lib/libctru.a(appExit.o)
                0x0012ad08                __appExit
 .text          0x0012ad24       0x20 /Users/spinal/devkitPro/libctru/lib/libctru.a(appInit.o)
                0x0012ad24                __appInit
 .text          0x0012ad44       0x90 /Users/spinal/devkitPro/libctru/lib/libctru.a(ctru_exit.o)
                0x0012ad44                __libctru_exit
 .text          0x0012add4      0xffc /Users/spinal/devkitPro/libctru/lib/libctru.a(sdmc_dev.o)
                0x0012bc50                sdmcInit
                0x0012bd80                sdmcExit
 .text          0x0012bdd0      0x118 /Users/spinal/devkitPro/libctru/lib/libctru.a(rbtree_iterator.o)
                0x0012bdd0                rbtree_node_next
                0x0012be5c                rbtree_node_prev
 .text          0x0012bee8      0x138 /Users/spinal/devkitPro/libctru/lib/libctru.a(decode_utf8.o)
                0x0012bee8                decode_utf8
 .text          0x0012c020       0xe8 /Users/spinal/devkitPro/libctru/lib/libctru.a(utf16_to_utf8.o)
                0x0012c020                utf16_to_utf8
 .text          0x0012c108       0xb8 /Users/spinal/devkitPro/libctru/lib/libctru.a(utf8_to_utf16.o)
                0x0012c108                utf8_to_utf16
 .text          0x0012c1c0       0x60 /Users/spinal/devkitPro/libctru/lib/libctru.a(decode_utf16.o)
                0x0012c1c0                decode_utf16
 .text          0x0012c220       0x68 /Users/spinal/devkitPro/libctru/lib/libctru.a(encode_utf16.o)
                0x0012c220                encode_utf16
 .text          0x0012c288      0x104 /Users/spinal/devkitPro/libctru/lib/libctru.a(encode_utf8.o)
                0x0012c288                encode_utf8
 .text          0x0012c38c        0x0 /Users/spinal/devkitPro/devkitARM/bin/../lib/gcc/arm-none-eabi/4.9.2/../../../../arm-none-eabi/lib/armv6k/fpu/libstdc++.a(del_op.o)
 .text          0x0012c38c        0x0 /Users/spinal/devkitPro/devkitARM/bin/../lib/gcc/arm-none-eabi/4.9.2/../../../../arm-none-eabi/lib/armv6k/fpu/libstdc++.a(del_opv.o)
 .text          0x0012c38c        0x0 /Users/spinal/devkitPro/devkitARM/bin/../lib/gcc/arm-none-eabi/4.9.2/../../../../arm-none-eabi/lib/armv6k/fpu/libstdc++.a(guard.o)
 .text          0x0012c38c        0x0 /Users/spinal/devkitPro/devkitARM/bin/../lib/gcc/arm-none-eabi/4.9.2/../../../../arm-none-eabi/lib/armv6k/fpu/libstdc++.a(guard_error.o)
 .text          0x0012c38c        0x0 /Users/spinal/devkitPro/devkitARM/bin/../lib/gcc/arm-none-eabi/4.9.2/../../../../arm-none-eabi/lib/armv6k/fpu/libstdc++.a(new_op.o)
 .text          0x0012c38c        0x0 /Users/spinal/devkitPro/devkitARM/bin/../lib/gcc/arm-none-eabi/4.9.2/../../../../arm-none-eabi/lib/armv6k/fpu/libstdc++.a(new_opv.o)
 .text          0x0012c38c        0x0 /Users/spinal/devkitPro/devkitARM/bin/../lib/gcc/arm-none-eabi/4.9.2/../../../../arm-none-eabi/lib/armv6k/fpu/libstdc++.a(pure.o)
 .text          0x0012c38c        0x0 /Users/spinal/devkitPro/devkitARM/bin/../lib/gcc/arm-none-eabi/4.9.2/../../../../arm-none-eabi/lib/armv6k/fpu/libstdc++.a(si_class_type_info.o)
 .text          0x0012c38c        0x0 /Users/spinal/devkitPro/devkitARM/bin/../lib/gcc/arm-none-eabi/4.9.2/../../../../arm-none-eabi/lib/armv6k/fpu/libstdc++.a(tinfo.o)
 .text          0x0012c38c        0x0 /Users/spinal/devkitPro/devkitARM/bin/../lib/gcc/arm-none-eabi/4.9.2/../../../../arm-none-eabi/lib/armv6k/fpu/libstdc++.a(bad_alloc.o)
 .text          0x0012c38c        0x0 /Users/spinal/devkitPro/devkitARM/bin/../lib/gcc/arm-none-eabi/4.9.2/../../../../arm-none-eabi/lib/armv6k/fpu/libstdc++.a(class_type_info.o)
 .text          0x0012c38c        0x0 /Users/spinal/devkitPro/devkitARM/bin/../lib/gcc/arm-none-eabi/4.9.2/../../../../arm-none-eabi/lib/armv6k/fpu/libstdc++.a(eh_alloc.o)
 .text          0x0012c38c        0x0 /Users/spinal/devkitPro/devkitARM/bin/../lib/gcc/arm-none-eabi/4.9.2/../../../../arm-none-eabi/lib/armv6k/fpu/libstdc++.a(eh_arm.o)
 .text          0x0012c38c        0x0 /Users/spinal/devkitPro/devkitARM/bin/../lib/gcc/arm-none-eabi/4.9.2/../../../../arm-none-eabi/lib/armv6k/fpu/libstdc++.a(eh_call.o)
 .text          0x0012c38c        0x0 /Users/spinal/devkitPro/devkitARM/bin/../lib/gcc/arm-none-eabi/4.9.2/../../../../arm-none-eabi/lib/armv6k/fpu/libstdc++.a(eh_catch.o)
 .text          0x0012c38c        0x0 /Users/spinal/devkitPro/devkitARM/bin/../lib/gcc/arm-none-eabi/4.9.2/../../../../arm-none-eabi/lib/armv6k/fpu/libstdc++.a(eh_exception.o)
 .text          0x0012c38c        0x0 /Users/spinal/devkitPro/devkitARM/bin/../lib/gcc/arm-none-eabi/4.9.2/../../../../arm-none-eabi/lib/armv6k/fpu/libstdc++.a(eh_globals.o)
 .text          0x0012c38c        0x0 /Users/spinal/devkitPro/devkitARM/bin/../lib/gcc/arm-none-eabi/4.9.2/../../../../arm-none-eabi/lib/armv6k/fpu/libstdc++.a(eh_personality.o)
 .text          0x0012c38c        0x0 /Users/spinal/devkitPro/devkitARM/bin/../lib/gcc/arm-none-eabi/4.9.2/../../../../arm-none-eabi/lib/armv6k/fpu/libstdc++.a(eh_terminate.o)
 .text          0x0012c38c        0x0 /Users/spinal/devkitPro/devkitARM/bin/../lib/gcc/arm-none-eabi/4.9.2/../../../../arm-none-eabi/lib/armv6k/fpu/libstdc++.a(eh_throw.o)
 .text          0x0012c38c        0x0 /Users/spinal/devkitPro/devkitARM/bin/../lib/gcc/arm-none-eabi/4.9.2/../../../../arm-none-eabi/lib/armv6k/fpu/libstdc++.a(eh_unex_handler.o)
 .text          0x0012c38c        0x0 /Users/spinal/devkitPro/devkitARM/bin/../lib/gcc/arm-none-eabi/4.9.2/../../../../arm-none-eabi/lib/armv6k/fpu/libstdc++.a(new_handler.o)
 .text          0x0012c38c        0x0 /Users/spinal/devkitPro/devkitARM/bin/../lib/gcc/arm-none-eabi/4.9.2/../../../../arm-none-eabi/lib/armv6k/fpu/libstdc++.a(eh_term_handler.o)
 .text          0x0012c38c        0x0 /Users/spinal/devkitPro/devkitARM/bin/../lib/gcc/arm-none-eabi/4.9.2/../../../../arm-none-eabi/lib/armv6k/fpu/libstdc++.a(vterminate.o)
 .text          0x0012c38c     0xd088 /Users/spinal/devkitPro/devkitARM/bin/../lib/gcc/arm-none-eabi/4.9.2/../../../../arm-none-eabi/lib/armv6k/fpu/libstdc++.a(cp-demangle.o)
                0x00139298                __cxa_demangle
                0x001393e8                __gcclibcxx_demangle_callback
 .text          0x00139414        0x0 /Users/spinal/devkitPro/devkitARM/bin/../lib/gcc/arm-none-eabi/4.9.2/../../../../arm-none-eabi/lib/armv6k/fpu/libstdc++.a(eh_type.o)
 .text          0x00139414        0x0 /Users/spinal/devkitPro/devkitARM/bin/../lib/gcc/arm-none-eabi/4.9.2/../../../../arm-none-eabi/lib/armv6k/fpu/libm.a(lib_a-s_cos.o)
 .text          0x00139414        0x0 /Users/spinal/devkitPro/devkitARM/bin/../lib/gcc/arm-none-eabi/4.9.2/../../../../arm-none-eabi/lib/armv6k/fpu/libm.a(lib_a-s_sin.o)
 .text          0x00139414        0x0 /Users/spinal/devkitPro/devkitARM/bin/../lib/gcc/arm-none-eabi/4.9.2/../../../../arm-none-eabi/lib/armv6k/fpu/libm.a(lib_a-e_rem_pio2.o)
 .text          0x00139414        0x0 /Users/spinal/devkitPro/devkitARM/bin/../lib/gcc/arm-none-eabi/4.9.2/../../../../arm-none-eabi/lib/armv6k/fpu/libm.a(lib_a-k_cos.o)
 .text          0x00139414        0x0 /Users/spinal/devkitPro/devkitARM/bin/../lib/gcc/arm-none-eabi/4.9.2/../../../../arm-none-eabi/lib/armv6k/fpu/libm.a(lib_a-k_rem_pio2.o)
 .text          0x00139414        0x0 /Users/spinal/devkitPro/devkitARM/bin/../lib/gcc/arm-none-eabi/4.9.2/../../../../arm-none-eabi/lib/armv6k/fpu/libm.a(lib_a-k_sin.o)
 .text          0x00139414        0x0 /Users/spinal/devkitPro/devkitARM/bin/../lib/gcc/arm-none-eabi/4.9.2/../../../../arm-none-eabi/lib/armv6k/fpu/libm.a(lib_a-s_fabs.o)
 .text          0x00139414        0x0 /Users/spinal/devkitPro/devkitARM/bin/../lib/gcc/arm-none-eabi/4.9.2/../../../../arm-none-eabi/lib/armv6k/fpu/libm.a(lib_a-s_floor.o)
 .text          0x00139414        0x0 /Users/spinal/devkitPro/devkitARM/bin/../lib/gcc/arm-none-eabi/4.9.2/../../../../arm-none-eabi/lib/armv6k/fpu/libm.a(lib_a-s_scalbn.o)
 .text          0x00139414        0x0 /Users/spinal/devkitPro/devkitARM/bin/../lib/gcc/arm-none-eabi/4.9.2/../../../../arm-none-eabi/lib/armv6k/fpu/libm.a(lib_a-s_copysign.o)
 .text          0x00139414      0x20c /Users/spinal/devkitPro/devkitARM/bin/../lib/gcc/arm-none-eabi/4.9.2/armv6k/fpu/libgcc.a(_udivsi3.o)
                0x00139414                __udivsi3
                0x00139414                __aeabi_uidiv
                0x00139600                __aeabi_uidivmod
 .text          0x00139620        0x4 /Users/spinal/devkitPro/devkitARM/bin/../lib/gcc/arm-none-eabi/4.9.2/armv6k/fpu/libgcc.a(_dvmd_tls.o)
                0x00139620                __aeabi_ldiv0
                0x00139620                __aeabi_idiv0
 .text          0x00139624     0x1080 /Users/spinal/devkitPro/devkitARM/bin/../lib/gcc/arm-none-eabi/4.9.2/armv6k/fpu/libgcc.a(unwind-arm.o)
                0x00139ac4                _Unwind_GetCFA
                0x00139acc                __gnu_Unwind_RaiseException
                0x00139b74                __gnu_Unwind_ForcedUnwind
                0x00139b98                __gnu_Unwind_Resume
                0x00139c0c                __gnu_Unwind_Resume_or_Rethrow
                0x00139c2c                _Unwind_Complete
                0x00139c30                _Unwind_DeleteException
                0x00139c48                _Unwind_VRS_Get
                0x00139cd0                _Unwind_VRS_Set
                0x00139d5c                __gnu_Unwind_Backtrace
                0x0013a260                __aeabi_unwind_cpp_pr0
                0x0013a268                __aeabi_unwind_cpp_pr1
                0x0013a270                __aeabi_unwind_cpp_pr2
                0x0013a278                _Unwind_VRS_Pop
 .text          0x0013a6a4      0x1a8 /Users/spinal/devkitPro/devkitARM/bin/../lib/gcc/arm-none-eabi/4.9.2/armv6k/fpu/libgcc.a(libunwind.o)
                0x0013a6a4                __restore_core_regs
                0x0013a6a4                restore_core_regs
                0x0013a6b8                __gnu_Unwind_Restore_VFP
                0x0013a6c0                __gnu_Unwind_Save_VFP
                0x0013a6c8                __gnu_Unwind_Restore_VFP_D
                0x0013a6d0                __gnu_Unwind_Save_VFP_D
                0x0013a6d8                __gnu_Unwind_Restore_VFP_D_16_to_31
                0x0013a6e0                __gnu_Unwind_Save_VFP_D_16_to_31
                0x0013a6e8                __gnu_Unwind_Restore_WMMXD
                0x0013a72c                __gnu_Unwind_Save_WMMXD
                0x0013a770                __gnu_Unwind_Restore_WMMXC
                0x0013a784                __gnu_Unwind_Save_WMMXC
                0x0013a798                _Unwind_RaiseException
                0x0013a798                ___Unwind_RaiseException
                0x0013a7bc                ___Unwind_Resume
                0x0013a7bc                _Unwind_Resume
                0x0013a7e0                ___Unwind_Resume_or_Rethrow
                0x0013a7e0                _Unwind_Resume_or_Rethrow
                0x0013a804                _Unwind_ForcedUnwind
                0x0013a804                ___Unwind_ForcedUnwind
                0x0013a828                _Unwind_Backtrace
                0x0013a828                ___Unwind_Backtrace
 .text          0x0013a84c      0x4d0 /Users/spinal/devkitPro/devkitARM/bin/../lib/gcc/arm-none-eabi/4.9.2/armv6k/fpu/libgcc.a(pr-support.o)
                0x0013a8dc                __gnu_unwind_execute
                0x0013ac9c                __gnu_unwind_frame
                0x0013ace0                _Unwind_GetRegionStart
                0x0013acf0                _Unwind_GetLanguageSpecificData
                0x0013ad0c                _Unwind_GetDataRelBase
                0x0013ad14                _Unwind_GetTextRelBase
 .text          0x0013ad1c        0x0 /Users/spinal/devkitPro/devkitARM/bin/../lib/gcc/arm-none-eabi/4.9.2/../../../../arm-none-eabi/lib/armv6k/fpu/libg.a(lib_a-abort.o)
 .text          0x0013ad1c        0x0 /Users/spinal/devkitPro/devkitARM/bin/../lib/gcc/arm-none-eabi/4.9.2/../../../../arm-none-eabi/lib/armv6k/fpu/libg.a(lib_a-atoi.o)
 .text          0x0013ad1c        0x0 /Users/spinal/devkitPro/devkitARM/bin/../lib/gcc/arm-none-eabi/4.9.2/../../../../arm-none-eabi/lib/armv6k/fpu/libg.a(lib_a-bsearch.o)
 .text          0x0013ad1c        0x0 /Users/spinal/devkitPro/devkitARM/bin/../lib/gcc/arm-none-eabi/4.9.2/../../../../arm-none-eabi/lib/armv6k/fpu/libg.a(lib_a-fclose.o)
 .text          0x0013ad1c        0x0 /Users/spinal/devkitPro/devkitARM/bin/../lib/gcc/arm-none-eabi/4.9.2/../../../../arm-none-eabi/lib/armv6k/fpu/libg.a(lib_a-fflush.o)
 .text          0x0013ad1c        0x0 /Users/spinal/devkitPro/devkitARM/bin/../lib/gcc/arm-none-eabi/4.9.2/../../../../arm-none-eabi/lib/armv6k/fpu/libg.a(lib_a-fgetc.o)
 .text          0x0013ad1c        0x0 /Users/spinal/devkitPro/devkitARM/bin/../lib/gcc/arm-none-eabi/4.9.2/../../../../arm-none-eabi/lib/armv6k/fpu/libg.a(lib_a-fgets.o)
 .text          0x0013ad1c        0x0 /Users/spinal/devkitPro/devkitARM/bin/../lib/gcc/arm-none-eabi/4.9.2/../../../../arm-none-eabi/lib/armv6k/fpu/libg.a(lib_a-findfp.o)
 .text          0x0013ad1c        0x0 /Users/spinal/devkitPro/devkitARM/bin/../lib/gcc/arm-none-eabi/4.9.2/../../../../arm-none-eabi/lib/armv6k/fpu/libg.a(lib_a-fini.o)
 .text          0x0013ad1c        0x0 /Users/spinal/devkitPro/devkitARM/bin/../lib/gcc/arm-none-eabi/4.9.2/../../../../arm-none-eabi/lib/armv6k/fpu/libg.a(lib_a-fopen.o)
 .text          0x0013ad1c        0x0 /Users/spinal/devkitPro/devkitARM/bin/../lib/gcc/arm-none-eabi/4.9.2/../../../../arm-none-eabi/lib/armv6k/fpu/libg.a(lib_a-fprintf.o)
 .text          0x0013ad1c        0x0 /Users/spinal/devkitPro/devkitARM/bin/../lib/gcc/arm-none-eabi/4.9.2/../../../../arm-none-eabi/lib/armv6k/fpu/libg.a(lib_a-fputc.o)
 .text          0x0013ad1c        0x0 /Users/spinal/devkitPro/devkitARM/bin/../lib/gcc/arm-none-eabi/4.9.2/../../../../arm-none-eabi/lib/armv6k/fpu/libg.a(lib_a-fputs.o)
 .text          0x0013ad1c        0x0 /Users/spinal/devkitPro/devkitARM/bin/../lib/gcc/arm-none-eabi/4.9.2/../../../../arm-none-eabi/lib/armv6k/fpu/libg.a(lib_a-fread.o)
 .text          0x0013ad1c        0x0 /Users/spinal/devkitPro/devkitARM/bin/../lib/gcc/arm-none-eabi/4.9.2/../../../../arm-none-eabi/lib/armv6k/fpu/libg.a(lib_a-freer.o)
 .text          0x0013ad1c        0x0 /Users/spinal/devkitPro/devkitARM/bin/../lib/gcc/arm-none-eabi/4.9.2/../../../../arm-none-eabi/lib/armv6k/fpu/libg.a(lib_a-fscanf.o)
 .text          0x0013ad1c        0x0 /Users/spinal/devkitPro/devkitARM/bin/../lib/gcc/arm-none-eabi/4.9.2/../../../../arm-none-eabi/lib/armv6k/fpu/libg.a(lib_a-fseek.o)
 .text          0x0013ad1c        0x0 /Users/spinal/devkitPro/devkitARM/bin/../lib/gcc/arm-none-eabi/4.9.2/../../../../arm-none-eabi/lib/armv6k/fpu/libg.a(lib_a-fseeko.o)
 .text          0x0013ad1c        0x0 /Users/spinal/devkitPro/devkitARM/bin/../lib/gcc/arm-none-eabi/4.9.2/../../../../arm-none-eabi/lib/armv6k/fpu/libg.a(lib_a-ftell.o)
 .text          0x0013ad1c        0x0 /Users/spinal/devkitPro/devkitARM/bin/../lib/gcc/arm-none-eabi/4.9.2/../../../../arm-none-eabi/lib/armv6k/fpu/libg.a(lib_a-ftello.o)
 .text          0x0013ad1c        0x0 /Users/spinal/devkitPro/devkitARM/bin/../lib/gcc/arm-none-eabi/4.9.2/../../../../arm-none-eabi/lib/armv6k/fpu/libg.a(lib_a-fvwrite.o)
 .text          0x0013ad1c        0x0 /Users/spinal/devkitPro/devkitARM/bin/../lib/gcc/arm-none-eabi/4.9.2/../../../../arm-none-eabi/lib/armv6k/fpu/libg.a(lib_a-fwalk.o)
 .text          0x0013ad1c        0x0 /Users/spinal/devkitPro/devkitARM/bin/../lib/gcc/arm-none-eabi/4.9.2/../../../../arm-none-eabi/lib/armv6k/fpu/libg.a(lib_a-fwrite.o)
 .text          0x0013ad1c        0x0 /Users/spinal/devkitPro/devkitARM/bin/../lib/gcc/arm-none-eabi/4.9.2/../../../../arm-none-eabi/lib/armv6k/fpu/libg.a(lib_a-impure.o)
 .text          0x0013ad1c        0x0 /Users/spinal/devkitPro/devkitARM/bin/../lib/gcc/arm-none-eabi/4.9.2/../../../../arm-none-eabi/lib/armv6k/fpu/libg.a(lib_a-init.o)
 .text          0x0013ad1c        0x0 /Users/spinal/devkitPro/devkitARM/bin/../lib/gcc/arm-none-eabi/4.9.2/../../../../arm-none-eabi/lib/armv6k/fpu/libg.a(lib_a-iprintf.o)
 .text          0x0013ad1c        0x0 /Users/spinal/devkitPro/devkitARM/bin/../lib/gcc/arm-none-eabi/4.9.2/../../../../arm-none-eabi/lib/armv6k/fpu/libg.a(lib_a-makebuf.o)
 .text          0x0013ad1c        0x0 /Users/spinal/devkitPro/devkitARM/bin/../lib/gcc/arm-none-eabi/4.9.2/../../../../arm-none-eabi/lib/armv6k/fpu/libg.a(lib_a-malloc.o)
 .text          0x0013ad1c        0x0 /Users/spinal/devkitPro/devkitARM/bin/../lib/gcc/arm-none-eabi/4.9.2/../../../../arm-none-eabi/lib/armv6k/fpu/libg.a(lib_a-mallocr.o)
 .text          0x0013ad1c        0x0 /Users/spinal/devkitPro/devkitARM/bin/../lib/gcc/arm-none-eabi/4.9.2/../../../../arm-none-eabi/lib/armv6k/fpu/libg.a(lib_a-memchr.o)
 .text          0x0013ad1c        0x0 /Users/spinal/devkitPro/devkitARM/bin/../lib/gcc/arm-none-eabi/4.9.2/../../../../arm-none-eabi/lib/armv6k/fpu/libg.a(lib_a-memcmp.o)
 .text          0x0013ad1c        0x0 /Users/spinal/devkitPro/devkitARM/bin/../lib/gcc/arm-none-eabi/4.9.2/../../../../arm-none-eabi/lib/armv6k/fpu/libg.a(lib_a-memcpy.o)
 .text          0x0013ad1c        0x0 /Users/spinal/devkitPro/devkitARM/bin/../lib/gcc/arm-none-eabi/4.9.2/../../../../arm-none-eabi/lib/armv6k/fpu/libg.a(lib_a-memmove.o)
 .text          0x0013ad1c        0x0 /Users/spinal/devkitPro/devkitARM/bin/../lib/gcc/arm-none-eabi/4.9.2/../../../../arm-none-eabi/lib/armv6k/fpu/libg.a(lib_a-memset.o)
 .text          0x0013ad1c        0x0 /Users/spinal/devkitPro/devkitARM/bin/../lib/gcc/arm-none-eabi/4.9.2/../../../../arm-none-eabi/lib/armv6k/fpu/libg.a(lib_a-mlock.o)
 .text          0x0013ad1c        0x0 /Users/spinal/devkitPro/devkitARM/bin/../lib/gcc/arm-none-eabi/4.9.2/../../../../arm-none-eabi/lib/armv6k/fpu/libg.a(lib_a-printf.o)
 .text          0x0013ad1c        0x0 /Users/spinal/devkitPro/devkitARM/bin/../lib/gcc/arm-none-eabi/4.9.2/../../../../arm-none-eabi/lib/armv6k/fpu/libg.a(lib_a-putc.o)
 .text          0x0013ad1c        0x0 /Users/spinal/devkitPro/devkitARM/bin/../lib/gcc/arm-none-eabi/4.9.2/../../../../arm-none-eabi/lib/armv6k/fpu/libg.a(lib_a-puts.o)
 .text          0x0013ad1c        0x0 /Users/spinal/devkitPro/devkitARM/bin/../lib/gcc/arm-none-eabi/4.9.2/../../../../arm-none-eabi/lib/armv6k/fpu/libg.a(lib_a-rand.o)
 .text          0x0013ad1c        0x0 /Users/spinal/devkitPro/devkitARM/bin/../lib/gcc/arm-none-eabi/4.9.2/../../../../arm-none-eabi/lib/armv6k/fpu/libg.a(lib_a-realloc.o)
 .text          0x0013ad1c        0x0 /Users/spinal/devkitPro/devkitARM/bin/../lib/gcc/arm-none-eabi/4.9.2/../../../../arm-none-eabi/lib/armv6k/fpu/libg.a(lib_a-reallocr.o)
 .text          0x0013ad1c        0x0 /Users/spinal/devkitPro/devkitARM/bin/../lib/gcc/arm-none-eabi/4.9.2/../../../../arm-none-eabi/lib/armv6k/fpu/libg.a(lib_a-refill.o)
 .text          0x0013ad1c        0x0 /Users/spinal/devkitPro/devkitARM/bin/../lib/gcc/arm-none-eabi/4.9.2/../../../../arm-none-eabi/lib/armv6k/fpu/libg.a(lib_a-remove.o)
 .text          0x0013ad1c        0x0 /Users/spinal/devkitPro/devkitARM/bin/../lib/gcc/arm-none-eabi/4.9.2/../../../../arm-none-eabi/lib/armv6k/fpu/libg.a(lib_a-rget.o)
 .text          0x0013ad1c        0x0 /Users/spinal/devkitPro/devkitARM/bin/../lib/gcc/arm-none-eabi/4.9.2/../../../../arm-none-eabi/lib/armv6k/fpu/libg.a(lib_a-signal.o)
 .text          0x0013ad1c        0x0 /Users/spinal/devkitPro/devkitARM/bin/../lib/gcc/arm-none-eabi/4.9.2/../../../../arm-none-eabi/lib/armv6k/fpu/libg.a(lib_a-sprintf.o)
 .text          0x0013ad1c        0x0 /Users/spinal/devkitPro/devkitARM/bin/../lib/gcc/arm-none-eabi/4.9.2/../../../../arm-none-eabi/lib/armv6k/fpu/libg.a(lib_a-sscanf.o)
 .text          0x0013ad1c        0x0 /Users/spinal/devkitPro/devkitARM/bin/../lib/gcc/arm-none-eabi/4.9.2/../../../../arm-none-eabi/lib/armv6k/fpu/libg.a(lib_a-stdio.o)
 .text          0x0013ad1c        0x0 /Users/spinal/devkitPro/devkitARM/bin/../lib/gcc/arm-none-eabi/4.9.2/../../../../arm-none-eabi/lib/armv6k/fpu/libg.a(lib_a-stpcpy.o)
 .text          0x0013ad1c        0x0 /Users/spinal/devkitPro/devkitARM/bin/../lib/gcc/arm-none-eabi/4.9.2/../../../../arm-none-eabi/lib/armv6k/fpu/libg.a(lib_a-strcasecmp.o)
 .text          0x0013ad1c        0x0 /Users/spinal/devkitPro/devkitARM/bin/../lib/gcc/arm-none-eabi/4.9.2/../../../../arm-none-eabi/lib/armv6k/fpu/libg.a(lib_a-strchr.o)
 *fill*         0x0013ad1c        0x4 
 .text          0x0013ad20      0x3a0 /Users/spinal/devkitPro/devkitARM/bin/../lib/gcc/arm-none-eabi/4.9.2/../../../../arm-none-eabi/lib/armv6k/fpu/libg.a(lib_a-strcmp.o)
                0x0013ad28                strcmp
 .text          0x0013b0c0        0x0 /Users/spinal/devkitPro/devkitARM/bin/../lib/gcc/arm-none-eabi/4.9.2/../../../../arm-none-eabi/lib/armv6k/fpu/libg.a(lib_a-strcpy.o)
 .text          0x0013b0c0        0x0 /Users/spinal/devkitPro/devkitARM/bin/../lib/gcc/arm-none-eabi/4.9.2/../../../../arm-none-eabi/lib/armv6k/fpu/libg.a(lib_a-strlen.o)
 .text          0x0013b0c0        0x0 /Users/spinal/devkitPro/devkitARM/bin/../lib/gcc/arm-none-eabi/4.9.2/../../../../arm-none-eabi/lib/armv6k/fpu/libg.a(lib_a-strncat.o)
 .text          0x0013b0c0        0x0 /Users/spinal/devkitPro/devkitARM/bin/../lib/gcc/arm-none-eabi/4.9.2/../../../../arm-none-eabi/lib/armv6k/fpu/libg.a(lib_a-strncmp.o)
 .text          0x0013b0c0        0x0 /Users/spinal/devkitPro/devkitARM/bin/../lib/gcc/arm-none-eabi/4.9.2/../../../../arm-none-eabi/lib/armv6k/fpu/libg.a(lib_a-strncpy.o)
 .text          0x0013b0c0        0x0 /Users/spinal/devkitPro/devkitARM/bin/../lib/gcc/arm-none-eabi/4.9.2/../../../../arm-none-eabi/lib/armv6k/fpu/libg.a(lib_a-strtol.o)
 .text          0x0013b0c0        0x0 /Users/spinal/devkitPro/devkitARM/bin/../lib/gcc/arm-none-eabi/4.9.2/../../../../arm-none-eabi/lib/armv6k/fpu/libg.a(lib_a-svfprintf.o)
 .text          0x0013b0c0        0x0 /Users/spinal/devkitPro/devkitARM/bin/../lib/gcc/arm-none-eabi/4.9.2/../../../../arm-none-eabi/lib/armv6k/fpu/libg.a(lib_a-svfscanf.o)
 .text          0x0013b0c0        0x0 /Users/spinal/devkitPro/devkitARM/bin/../lib/gcc/arm-none-eabi/4.9.2/../../../../arm-none-eabi/lib/armv6k/fpu/libg.a(lib_a-sysstat.o)
 .text          0x0013b0c0        0x0 /Users/spinal/devkitPro/devkitARM/bin/../lib/gcc/arm-none-eabi/4.9.2/../../../../arm-none-eabi/lib/armv6k/fpu/libg.a(lib_a-syswrite.o)
 .text          0x0013b0c0        0x0 /Users/spinal/devkitPro/devkitARM/bin/../lib/gcc/arm-none-eabi/4.9.2/../../../../arm-none-eabi/lib/armv6k/fpu/libg.a(lib_a-vfiprintf.o)
 .text          0x0013b0c0        0x0 /Users/spinal/devkitPro/devkitARM/bin/../lib/gcc/arm-none-eabi/4.9.2/../../../../arm-none-eabi/lib/armv6k/fpu/libg.a(lib_a-vfprintf.o)
 .text          0x0013b0c0        0x0 /Users/spinal/devkitPro/devkitARM/bin/../lib/gcc/arm-none-eabi/4.9.2/../../../../arm-none-eabi/lib/armv6k/fpu/libg.a(lib_a-vfscanf.o)
 .text          0x0013b0c0        0x0 /Users/spinal/devkitPro/devkitARM/bin/../lib/gcc/arm-none-eabi/4.9.2/../../../../arm-none-eabi/lib/armv6k/fpu/libg.a(lib_a-wbuf.o)
 .text          0x0013b0c0        0x0 /Users/spinal/devkitPro/devkitARM/bin/../lib/gcc/arm-none-eabi/4.9.2/../../../../arm-none-eabi/lib/armv6k/fpu/libg.a(lib_a-wcrtomb.o)
 .text          0x0013b0c0        0x0 /Users/spinal/devkitPro/devkitARM/bin/../lib/gcc/arm-none-eabi/4.9.2/../../../../arm-none-eabi/lib/armv6k/fpu/libg.a(lib_a-wcsrtombs.o)
 .text          0x0013b0c0        0x0 /Users/spinal/devkitPro/devkitARM/bin/../lib/gcc/arm-none-eabi/4.9.2/../../../../arm-none-eabi/lib/armv6k/fpu/libg.a(lib_a-wctomb_r.o)
 .text          0x0013b0c0        0x0 /Users/spinal/devkitPro/devkitARM/bin/../lib/gcc/arm-none-eabi/4.9.2/../../../../arm-none-eabi/lib/armv6k/fpu/libg.a(lib_a-wsetup.o)
 .text          0x0013b0c0        0x0 /Users/spinal/devkitPro/devkitARM/bin/../lib/gcc/arm-none-eabi/4.9.2/../../../../arm-none-eabi/lib/armv6k/fpu/libg.a(lib_a-ctype_.o)
 .text          0x0013b0c0        0x0 /Users/spinal/devkitPro/devkitARM/bin/../lib/gcc/arm-none-eabi/4.9.2/../../../../arm-none-eabi/lib/armv6k/fpu/libg.a(lib_a-dtoa.o)
 .text          0x0013b0c0        0x0 /Users/spinal/devkitPro/devkitARM/bin/../lib/gcc/arm-none-eabi/4.9.2/../../../../arm-none-eabi/lib/armv6k/fpu/libg.a(lib_a-flags.o)
 .text          0x0013b0c0        0x0 /Users/spinal/devkitPro/devkitARM/bin/../lib/gcc/arm-none-eabi/4.9.2/../../../../arm-none-eabi/lib/armv6k/fpu/libg.a(lib_a-fputwc.o)
 .text          0x0013b0c0        0x0 /Users/spinal/devkitPro/devkitARM/bin/../lib/gcc/arm-none-eabi/4.9.2/../../../../arm-none-eabi/lib/armv6k/fpu/libg.a(lib_a-iswspace.o)
 .text          0x0013b0c0        0x0 /Users/spinal/devkitPro/devkitARM/bin/../lib/gcc/arm-none-eabi/4.9.2/../../../../arm-none-eabi/lib/armv6k/fpu/libg.a(lib_a-jp2uc.o)
 .text          0x0013b0c0        0x0 /Users/spinal/devkitPro/devkitARM/bin/../lib/gcc/arm-none-eabi/4.9.2/../../../../arm-none-eabi/lib/armv6k/fpu/libg.a(lib_a-locale.o)
 .text          0x0013b0c0        0x0 /Users/spinal/devkitPro/devkitARM/bin/../lib/gcc/arm-none-eabi/4.9.2/../../../../arm-none-eabi/lib/armv6k/fpu/libg.a(lib_a-mbrtowc.o)
 .text          0x0013b0c0        0x0 /Users/spinal/devkitPro/devkitARM/bin/../lib/gcc/arm-none-eabi/4.9.2/../../../../arm-none-eabi/lib/armv6k/fpu/libg.a(lib_a-mbtowc_r.o)
 .text          0x0013b0c0        0x0 /Users/spinal/devkitPro/devkitARM/bin/../lib/gcc/arm-none-eabi/4.9.2/../../../../arm-none-eabi/lib/armv6k/fpu/libg.a(lib_a-mprec.o)
 .text          0x0013b0c0        0x0 /Users/spinal/devkitPro/devkitARM/bin/../lib/gcc/arm-none-eabi/4.9.2/../../../../arm-none-eabi/lib/armv6k/fpu/libg.a(lib_a-s_fpclassify.o)
 .text          0x0013b0c0        0x0 /Users/spinal/devkitPro/devkitARM/bin/../lib/gcc/arm-none-eabi/4.9.2/../../../../arm-none-eabi/lib/armv6k/fpu/libg.a(lib_a-s_frexp.o)
 .text          0x0013b0c0        0x0 /Users/spinal/devkitPro/devkitARM/bin/../lib/gcc/arm-none-eabi/4.9.2/../../../../arm-none-eabi/lib/armv6k/fpu/libg.a(lib_a-sccl.o)
 .text          0x0013b0c0        0x0 /Users/spinal/devkitPro/devkitARM/bin/../lib/gcc/arm-none-eabi/4.9.2/../../../../arm-none-eabi/lib/armv6k/fpu/libg.a(lib_a-sf_nan.o)
 .text          0x0013b0c0        0x0 /Users/spinal/devkitPro/devkitARM/bin/../lib/gcc/arm-none-eabi/4.9.2/../../../../arm-none-eabi/lib/armv6k/fpu/libg.a(lib_a-stpncpy.o)
 .text          0x0013b0c0        0x0 /Users/spinal/devkitPro/devkitARM/bin/../lib/gcc/arm-none-eabi/4.9.2/../../../../arm-none-eabi/lib/armv6k/fpu/libg.a(lib_a-strcat.o)
 .text          0x0013b0c0        0x0 /Users/spinal/devkitPro/devkitARM/bin/../lib/gcc/arm-none-eabi/4.9.2/../../../../arm-none-eabi/lib/armv6k/fpu/libg.a(lib_a-strlcpy.o)
 .text          0x0013b0c0        0x0 /Users/spinal/devkitPro/devkitARM/bin/../lib/gcc/arm-none-eabi/4.9.2/../../../../arm-none-eabi/lib/armv6k/fpu/libg.a(lib_a-strncasecmp.o)
 .text          0x0013b0c0        0x0 /Users/spinal/devkitPro/devkitARM/bin/../lib/gcc/arm-none-eabi/4.9.2/../../../../arm-none-eabi/lib/armv6k/fpu/libg.a(lib_a-strtod.o)
 .text          0x0013b0c0        0x0 /Users/spinal/devkitPro/devkitARM/bin/../lib/gcc/arm-none-eabi/4.9.2/../../../../arm-none-eabi/lib/armv6k/fpu/libg.a(lib_a-strtoll_r.o)
 .text          0x0013b0c0        0x0 /Users/spinal/devkitPro/devkitARM/bin/../lib/gcc/arm-none-eabi/4.9.2/../../../../arm-none-eabi/lib/armv6k/fpu/libg.a(lib_a-strtoul.o)
 .text          0x0013b0c0        0x0 /Users/spinal/devkitPro/devkitARM/bin/../lib/gcc/arm-none-eabi/4.9.2/../../../../arm-none-eabi/lib/armv6k/fpu/libg.a(lib_a-strtoull_r.o)
 .text          0x0013b0c0        0x0 /Users/spinal/devkitPro/devkitARM/bin/../lib/gcc/arm-none-eabi/4.9.2/../../../../arm-none-eabi/lib/armv6k/fpu/libg.a(lib_a-svfiprintf.o)
 .text          0x0013b0c0        0x0 /Users/spinal/devkitPro/devkitARM/bin/../lib/gcc/arm-none-eabi/4.9.2/../../../../arm-none-eabi/lib/armv6k/fpu/libg.a(lib_a-svfiscanf.o)
 .text          0x0013b0c0        0x0 /Users/spinal/devkitPro/devkitARM/bin/../lib/gcc/arm-none-eabi/4.9.2/../../../../arm-none-eabi/lib/armv6k/fpu/libg.a(lib_a-ungetc.o)
 .text          0x0013b0c0        0x0 /Users/spinal/devkitPro/devkitARM/bin/../lib/gcc/arm-none-eabi/4.9.2/../../../../arm-none-eabi/lib/armv6k/fpu/libg.a(lib_a-wcsnrtombs.o)
 .text          0x0013b0c0        0x0 /Users/spinal/devkitPro/devkitARM/bin/../lib/gcc/arm-none-eabi/4.9.2/../../../../arm-none-eabi/lib/armv6k/fpu/libg.a(lib_a-callocr.o)
 .text          0x0013b0c0        0x0 /Users/spinal/devkitPro/devkitARM/bin/../lib/gcc/arm-none-eabi/4.9.2/../../../../arm-none-eabi/lib/armv6k/fpu/libg.a(lib_a-gdtoa-gethex.o)
 .text          0x0013b0c0        0x0 /Users/spinal/devkitPro/devkitARM/bin/../lib/gcc/arm-none-eabi/4.9.2/../../../../arm-none-eabi/lib/armv6k/fpu/libg.a(lib_a-gdtoa-hexnan.o)
 .text          0x0013b0c0        0x0 /Users/spinal/devkitPro/devkitARM/bin/../lib/gcc/arm-none-eabi/4.9.2/../../../../arm-none-eabi/lib/armv6k/fpu/libg.a(lib_a-getenv_r.o)
 .text          0x0013b0c0        0x0 /Users/spinal/devkitPro/devkitARM/bin/../lib/gcc/arm-none-eabi/4.9.2/../../../../arm-none-eabi/lib/armv6k/fpu/libg.a(lib_a-environ.o)
 .text          0x0013b0c0        0x0 /Users/spinal/devkitPro/devkitARM/bin/../lib/gcc/arm-none-eabi/4.9.2/../../../../arm-none-eabi/lib/armv6k/fpu/libg.a(lib_a-envlock.o)
 .text          0x0013b0c0      0x1a8 /Users/spinal/devkitPro/devkitARM/bin/../lib/gcc/arm-none-eabi/4.9.2/../../../../arm-none-eabi/lib/armv6k/fpu/libsysbase.a(iosupport.o)
                0x0013b0c0                setDefaultDevice
                0x0013b0d8                FindDevice
                0x0013b184                RemoveDevice
                0x0013b1b0                AddDevice
                0x0013b244                GetDeviceOpTab
 .text          0x0013b268       0x7c /Users/spinal/devkitPro/devkitARM/bin/../lib/gcc/arm-none-eabi/4.9.2/../../../../arm-none-eabi/lib/armv6k/fpu/libsysbase.a(close.o)
                0x0013b268                _close_r
 .text          0x0013b2e4       0x6c /Users/spinal/devkitPro/devkitARM/bin/../lib/gcc/arm-none-eabi/4.9.2/../../../../arm-none-eabi/lib/armv6k/fpu/libsysbase.a(fstat.o)
                0x0013b2e4                _fstat_r
 .text          0x0013b350       0x10 /Users/spinal/devkitPro/devkitARM/bin/../lib/gcc/arm-none-eabi/4.9.2/../../../../arm-none-eabi/lib/armv6k/fpu/libsysbase.a(getpid.o)
                0x0013b350                _getpid_r
 .text          0x0013b360        0x8 /Users/spinal/devkitPro/devkitARM/bin/../lib/gcc/arm-none-eabi/4.9.2/../../../../arm-none-eabi/lib/armv6k/fpu/libsysbase.a(isatty.o)
                0x0013b360                _isatty_r
 .text          0x0013b368       0x10 /Users/spinal/devkitPro/devkitARM/bin/../lib/gcc/arm-none-eabi/4.9.2/../../../../arm-none-eabi/lib/armv6k/fpu/libsysbase.a(kill.o)
                0x0013b368                _kill_r
 .text          0x0013b378       0x74 /Users/spinal/devkitPro/devkitARM/bin/../lib/gcc/arm-none-eabi/4.9.2/../../../../arm-none-eabi/lib/armv6k/fpu/libsysbase.a(lseek.o)
                0x0013b378                _lseek_r
 .text          0x0013b3ec       0xc8 /Users/spinal/devkitPro/devkitARM/bin/../lib/gcc/arm-none-eabi/4.9.2/../../../../arm-none-eabi/lib/armv6k/fpu/libsysbase.a(open.o)
                0x0013b3ec                _open_r
 .text          0x0013b4b4       0x74 /Users/spinal/devkitPro/devkitARM/bin/../lib/gcc/arm-none-eabi/4.9.2/../../../../arm-none-eabi/lib/armv6k/fpu/libsysbase.a(read.o)
                0x0013b4b4                _read_r
 .text          0x0013b528       0x70 /Users/spinal/devkitPro/devkitARM/bin/../lib/gcc/arm-none-eabi/4.9.2/../../../../arm-none-eabi/lib/armv6k/fpu/libsysbase.a(sbrk.o)
                0x0013b528                _sbrk_r
 .text          0x0013b598       0x6c /Users/spinal/devkitPro/devkitARM/bin/../lib/gcc/arm-none-eabi/4.9.2/../../../../arm-none-eabi/lib/armv6k/fpu/libsysbase.a(stat.o)
                0x0013b598                _stat_r
 .text          0x0013b604       0x5c /Users/spinal/devkitPro/devkitARM/bin/../lib/gcc/arm-none-eabi/4.9.2/../../../../arm-none-eabi/lib/armv6k/fpu/libsysbase.a(unlink.o)
                0x0013b604                _unlink_r
 .text          0x0013b660       0x74 /Users/spinal/devkitPro/devkitARM/bin/../lib/gcc/arm-none-eabi/4.9.2/../../../../arm-none-eabi/lib/armv6k/fpu/libsysbase.a(write.o)
                0x0013b660                _write_r
 .text          0x0013b6d4       0x20 /Users/spinal/devkitPro/devkitARM/bin/../lib/gcc/arm-none-eabi/4.9.2/../../../../arm-none-eabi/lib/armv6k/fpu/libsysbase.a(_exit.o)
                0x0013b6d4                _exit
 .text          0x0013b6f4        0x0 /Users/spinal/devkitPro/devkitARM/bin/../lib/gcc/arm-none-eabi/4.9.2/../../../../arm-none-eabi/lib/armv6k/fpu/libsysbase.a(malloc_vars.o)
 .text          0x0013b6f4      0x3a4 /Users/spinal/devkitPro/devkitARM/bin/../lib/gcc/arm-none-eabi/4.9.2/../../../../arm-none-eabi/lib/armv6k/fpu/libsysbase.a(chdir.o)
                0x0013b6f4                _concatenate_path
                0x0013b8b0                chdir
                0x0013b9f8                getcwd
 .text          0x0013ba98        0x8 /Users/spinal/devkitPro/devkitARM/bin/../lib/gcc/arm-none-eabi/4.9.2/../../../../arm-none-eabi/lib/armv6k/fpu/libsysbase.a(flock.o)
                0x0013ba98                __flockfile
                0x0013ba9c                __funlockfile
 .text          0x0013baa0      0x108 /Users/spinal/devkitPro/devkitARM/bin/../lib/gcc/arm-none-eabi/4.9.2/../../../../arm-none-eabi/lib/armv6k/fpu/libsysbase.a(syscall_support.o)
                0x0013baa0                __libc_lock_init
                0x0013bab8                __libc_lock_acquire
                0x0013bad0                __libc_lock_try_acquire
                0x0013baf4                __libc_lock_release
                0x0013bb0c                __libc_lock_close
                0x0013bb24                __libc_lock_init_recursive
                0x0013bb3c                __libc_lock_acquire_recursive
                0x0013bb54                __libc_lock_try_acquire_recursive
                0x0013bb78                __libc_lock_release_recursive
                0x0013bb90                __libc_lock_close_recursive
 .text          0x0013bba8      0x254 /Users/spinal/devkitPro/devkitARM/bin/../lib/gcc/arm-none-eabi/4.9.2/../../../../arm-none-eabi/lib/armv6k/fpu/libsysbase.a(handle_manager.o)
                0x0013bba8                __free_handle
                0x0013bbec                __release_handle
                0x0013bc18                __alloc_handle
                0x0013bc80                __get_handle
                0x0013bc9c                dup
                0x0013bd28                dup2
 .text          0x0013bdfc      0x494 /Users/spinal/devkitPro/devkitARM/bin/../lib/gcc/arm-none-eabi/4.9.2/../../../../arm-none-eabi/lib/armv6k/fpu/libsysbase.a(dirent.o)
                0x0013bea4                opendir
                0x0013bf94                closedir
                0x0013c020                readdir
                0x0013c100                readdir_r
                0x0013c1cc                rewinddir
                0x0013c1f0                seekdir
                0x0013c280                telldir
 .text          0x0013c290       0x28 /Users/spinal/devkitPro/devkitARM/bin/../lib/gcc/arm-none-eabi/4.9.2/../../../../arm-none-eabi/lib/armv6k/fpu/libsysbase.a(getreent.o)
                0x0013c290                __getreent
 .text          0x0013c2b8      0x240 /Users/spinal/devkitPro/devkitARM/bin/../lib/gcc/arm-none-eabi/4.9.2/armv6k/fpu/libgcc.a(_divsi3.o)
                0x0013c2b8                __aeabi_idiv
                0x0013c2b8                __divsi3
                0x0013c4d8                __aeabi_idivmod
 .text          0x0013c4f8       0x3c /Users/spinal/devkitPro/devkitARM/bin/../lib/gcc/arm-none-eabi/4.9.2/armv6k/fpu/libgcc.a(_aeabi_uldivmod.o)
                0x0013c4f8                __aeabi_uldivmod
 .text          0x0013c534       0x78 /Users/spinal/devkitPro/devkitARM/bin/../lib/gcc/arm-none-eabi/4.9.2/armv6k/fpu/libgcc.a(bpabi.o)
                0x0013c534                __gnu_ldivmod_helper
                0x0013c570                __gnu_uldivmod_helper
 .text          0x0013c5ac      0x180 /Users/spinal/devkitPro/devkitARM/bin/../lib/gcc/arm-none-eabi/4.9.2/armv6k/fpu/libgcc.a(_divdi3.o)
                0x0013c5ac                __divdi3
 .text          0x0013c72c      0x124 /Users/spinal/devkitPro/devkitARM/bin/../lib/gcc/arm-none-eabi/4.9.2/armv6k/fpu/libgcc.a(_udivdi3.o)
                0x0013c72c                __udivdi3
 .text          0x0013c850        0x0 /Users/spinal/devkitPro/devkitARM/bin/../lib/gcc/arm-none-eabi/4.9.2/../../../../arm-none-eabi/lib/armv6k/fpu/libg.a(lib_a-errno.o)
 .text          0x0013c850        0x0 /Users/spinal/devkitPro/devkitARM/bin/../lib/gcc/arm-none-eabi/4.9.2/../../../../arm-none-eabi/lib/armv6k/fpu/libg.a(lib_a-strnlen.o)
 .text          0x0013c850        0x0 /Users/spinal/devkitPro/devkitARM/bin/../lib/gcc/arm-none-eabi/4.9.2/../../../../arm-none-eabi/lib/armv6k/fpu/libg.a(lib_a-strrchr.o)
 .text          0x0013c850        0x0 /Users/spinal/devkitPro/devkitARM/bin/../lib/gcc/arm-none-eabi/4.9.2/armv6k/fpu/crtend.o
 .text          0x0013c850        0x0 /Users/spinal/devkitPro/devkitARM/bin/../lib/gcc/arm-none-eabi/4.9.2/armv6k/fpu/crtn.o
 *(.text.*)
 .text._ZNSt6vectorI13c64_dir_entrySaIS0_EE19_M_emplace_back_auxIIS0_EEEvDpOT_
                0x0013c850      0x158 1541d64.o
                0x0013c850                void std::vector<c64_dir_entry, std::allocator<c64_dir_entry> >::_M_emplace_back_aux<c64_dir_entry>(c64_dir_entry&&)
                0x0013c850                void std::vector<c64_dir_entry, std::allocator<c64_dir_entry> >::_M_emplace_back_aux<c64_dir_entry>(c64_dir_entry&&)
 .text._ZN7MOS651012read_byte_ioEt
                0x0013c9a8      0x21c CPUC64.o
                0x0013c9a8                MOS6510::read_byte_io(unsigned short)
 .text.startup  0x0013cbc4       0x20 Prefs.o
 .text.startup  0x0013cbe4       0x78 main.o
                0x0013cbe4                main
 .text._ZdlPv   0x0013cc5c        0x4 /Users/spinal/devkitPro/devkitARM/bin/../lib/gcc/arm-none-eabi/4.9.2/../../../../arm-none-eabi/lib/armv6k/fpu/libstdc++.a(del_op.o)
                0x0013cc5c                operator delete(void*)
 .text._ZdaPv   0x0013cc60        0x4 /Users/spinal/devkitPro/devkitARM/bin/../lib/gcc/arm-none-eabi/4.9.2/../../../../arm-none-eabi/lib/armv6k/fpu/libstdc++.a(del_opv.o)
                0x0013cc60                operator delete[](void*)
 .text.__cxa_guard_acquire
                0x0013cc64       0x5c /Users/spinal/devkitPro/devkitARM/bin/../lib/gcc/arm-none-eabi/4.9.2/../../../../arm-none-eabi/lib/armv6k/fpu/libstdc++.a(guard.o)
                0x0013cc64                __cxa_guard_acquire
 .text.__cxa_guard_abort
                0x0013ccc0        0xc /Users/spinal/devkitPro/devkitARM/bin/../lib/gcc/arm-none-eabi/4.9.2/../../../../arm-none-eabi/lib/armv6k/fpu/libstdc++.a(guard.o)
                0x0013ccc0                __cxa_guard_abort
 .text.__cxa_guard_release
                0x0013cccc        0xc /Users/spinal/devkitPro/devkitARM/bin/../lib/gcc/arm-none-eabi/4.9.2/../../../../arm-none-eabi/lib/armv6k/fpu/libstdc++.a(guard.o)
                0x0013cccc                __cxa_guard_release
 .text._ZN9__gnu_cxx20recursive_init_errorD2Ev
                0x0013ccd8       0x20 /Users/spinal/devkitPro/devkitARM/bin/../lib/gcc/arm-none-eabi/4.9.2/../../../../arm-none-eabi/lib/armv6k/fpu/libstdc++.a(guard_error.o)
                0x0013ccd8                __gnu_cxx::recursive_init_error::~recursive_init_error()
                0x0013ccd8                __gnu_cxx::recursive_init_error::~recursive_init_error()
 .text._ZN9__gnu_cxx20recursive_init_errorD0Ev
                0x0013ccf8       0x28 /Users/spinal/devkitPro/devkitARM/bin/../lib/gcc/arm-none-eabi/4.9.2/../../../../arm-none-eabi/lib/armv6k/fpu/libstdc++.a(guard_error.o)
                0x0013ccf8                __gnu_cxx::recursive_init_error::~recursive_init_error()
 .text._Znwj    0x0013cd20       0x6c /Users/spinal/devkitPro/devkitARM/bin/../lib/gcc/arm-none-eabi/4.9.2/../../../../arm-none-eabi/lib/armv6k/fpu/libstdc++.a(new_op.o)
                0x0013cd20                operator new(unsigned int)
 .text._Znaj    0x0013cd8c       0x1c /Users/spinal/devkitPro/devkitARM/bin/../lib/gcc/arm-none-eabi/4.9.2/../../../../arm-none-eabi/lib/armv6k/fpu/libstdc++.a(new_opv.o)
                0x0013cd8c                operator new[](unsigned int)
 .text.__cxa_pure_virtual
                0x0013cda8       0x1c /Users/spinal/devkitPro/devkitARM/bin/../lib/gcc/arm-none-eabi/4.9.2/../../../../arm-none-eabi/lib/armv6k/fpu/libstdc++.a(pure.o)
                0x0013cda8                __cxa_pure_virtual
 .text.__cxa_deleted_virtual
                0x0013cdc4       0x1c /Users/spinal/devkitPro/devkitARM/bin/../lib/gcc/arm-none-eabi/4.9.2/../../../../arm-none-eabi/lib/armv6k/fpu/libstdc++.a(pure.o)
                0x0013cdc4                __cxa_deleted_virtual
 .text._ZN10__cxxabiv120__si_class_type_infoD2Ev
                0x0013cde0       0x20 /Users/spinal/devkitPro/devkitARM/bin/../lib/gcc/arm-none-eabi/4.9.2/../../../../arm-none-eabi/lib/armv6k/fpu/libstdc++.a(si_class_type_info.o)
                0x0013cde0                __cxxabiv1::__si_class_type_info::~__si_class_type_info()
                0x0013cde0                __cxxabiv1::__si_class_type_info::~__si_class_type_info()
 .text._ZN10__cxxabiv120__si_class_type_infoD0Ev
                0x0013ce00       0x28 /Users/spinal/devkitPro/devkitARM/bin/../lib/gcc/arm-none-eabi/4.9.2/../../../../arm-none-eabi/lib/armv6k/fpu/libstdc++.a(si_class_type_info.o)
                0x0013ce00                __cxxabiv1::__si_class_type_info::~__si_class_type_info()
 .text._ZNK10__cxxabiv120__si_class_type_info20__do_find_public_srcEiPKvPKNS_17__class_type_infoES2_
                0x0013ce28       0x68 /Users/spinal/devkitPro/devkitARM/bin/../lib/gcc/arm-none-eabi/4.9.2/../../../../arm-none-eabi/lib/armv6k/fpu/libstdc++.a(si_class_type_info.o)
                0x0013ce28                __cxxabiv1::__si_class_type_info::__do_find_public_src(int, void const*, __cxxabiv1::__class_type_info const*, void const*) const
 .text._ZNK10__cxxabiv120__si_class_type_info12__do_dyncastEiNS_17__class_type_info10__sub_kindEPKS1_PKvS4_S6_RNS1_16__dyncast_resultE
                0x0013ce90       0xd8 /Users/spinal/devkitPro/devkitARM/bin/../lib/gcc/arm-none-eabi/4.9.2/../../../../arm-none-eabi/lib/armv6k/fpu/libstdc++.a(si_class_type_info.o)
                0x0013ce90                __cxxabiv1::__si_class_type_info::__do_dyncast(int, __cxxabiv1::__class_type_info::__sub_kind, __cxxabiv1::__class_type_info const*, void const*, __cxxabiv1::__class_type_info const*, void const*, __cxxabiv1::__class_type_info::__dyncast_result&) const
 .text._ZNK10__cxxabiv120__si_class_type_info11__do_upcastEPKNS_17__class_type_infoEPKvRNS1_15__upcast_resultE
                0x0013cf68       0x40 /Users/spinal/devkitPro/devkitARM/bin/../lib/gcc/arm-none-eabi/4.9.2/../../../../arm-none-eabi/lib/armv6k/fpu/libstdc++.a(si_class_type_info.o)
                0x0013cf68                __cxxabiv1::__si_class_type_info::__do_upcast(__cxxabiv1::__class_type_info const*, void const*, __cxxabiv1::__class_type_info::__upcast_result&) const
 .text._ZNSt9type_infoD2Ev
                0x0013cfa8        0x4 /Users/spinal/devkitPro/devkitARM/bin/../lib/gcc/arm-none-eabi/4.9.2/../../../../arm-none-eabi/lib/armv6k/fpu/libstdc++.a(tinfo.o)
                0x0013cfa8                std::type_info::~type_info()
                0x0013cfa8                std::type_info::~type_info()
 .text._ZNKSt9type_info14__is_pointer_pEv
                0x0013cfac        0x8 /Users/spinal/devkitPro/devkitARM/bin/../lib/gcc/arm-none-eabi/4.9.2/../../../../arm-none-eabi/lib/armv6k/fpu/libstdc++.a(tinfo.o)
                0x0013cfac                std::type_info::__is_pointer_p() const
 .text._ZNKSt9type_info15__is_function_pEv
                0x0013cfb4        0x8 /Users/spinal/devkitPro/devkitARM/bin/../lib/gcc/arm-none-eabi/4.9.2/../../../../arm-none-eabi/lib/armv6k/fpu/libstdc++.a(tinfo.o)
                0x0013cfb4                std::type_info::__is_function_p() const
 .text._ZNKSt9type_info11__do_upcastEPKN10__cxxabiv117__class_type_infoEPPv
                0x0013cfbc        0x8 /Users/spinal/devkitPro/devkitARM/bin/../lib/gcc/arm-none-eabi/4.9.2/../../../../arm-none-eabi/lib/armv6k/fpu/libstdc++.a(tinfo.o)
                0x0013cfbc                std::type_info::__do_upcast(__cxxabiv1::__class_type_info const*, void**) const
 .text._ZNSt9type_infoD0Ev
                0x0013cfc4       0x14 /Users/spinal/devkitPro/devkitARM/bin/../lib/gcc/arm-none-eabi/4.9.2/../../../../arm-none-eabi/lib/armv6k/fpu/libstdc++.a(tinfo.o)
                0x0013cfc4                std::type_info::~type_info()
 .text._ZNKSt9type_infoeqERKS_
                0x0013cfd8       0x4c /Users/spinal/devkitPro/devkitARM/bin/../lib/gcc/arm-none-eabi/4.9.2/../../../../arm-none-eabi/lib/armv6k/fpu/libstdc++.a(tinfo.o)
                0x0013cfd8                std::type_info::operator==(std::type_info const&) const
 .text._ZNKSt9type_info10__do_catchEPKS_PPvj
                0x0013d024        0x4 /Users/spinal/devkitPro/devkitARM/bin/../lib/gcc/arm-none-eabi/4.9.2/../../../../arm-none-eabi/lib/armv6k/fpu/libstdc++.a(tinfo.o)
                0x0013d024                std::type_info::__do_catch(std::type_info const*, void**, unsigned int) const
 .text._ZNKSt9bad_alloc4whatEv
                0x0013d028        0xc /Users/spinal/devkitPro/devkitARM/bin/../lib/gcc/arm-none-eabi/4.9.2/../../../../arm-none-eabi/lib/armv6k/fpu/libstdc++.a(bad_alloc.o)
                0x0013d028                std::bad_alloc::what() const
 .text._ZNSt9bad_allocD2Ev
                0x0013d034       0x20 /Users/spinal/devkitPro/devkitARM/bin/../lib/gcc/arm-none-eabi/4.9.2/../../../../arm-none-eabi/lib/armv6k/fpu/libstdc++.a(bad_alloc.o)
                0x0013d034                std::bad_alloc::~bad_alloc()
                0x0013d034                std::bad_alloc::~bad_alloc()
 .text._ZNSt9bad_allocD0Ev
                0x0013d054       0x28 /Users/spinal/devkitPro/devkitARM/bin/../lib/gcc/arm-none-eabi/4.9.2/../../../../arm-none-eabi/lib/armv6k/fpu/libstdc++.a(bad_alloc.o)
                0x0013d054                std::bad_alloc::~bad_alloc()
 .text._ZNK10__cxxabiv117__class_type_info11__do_upcastEPKS0_PPv
                0x0013d07c       0x5c /Users/spinal/devkitPro/devkitARM/bin/../lib/gcc/arm-none-eabi/4.9.2/../../../../arm-none-eabi/lib/armv6k/fpu/libstdc++.a(class_type_info.o)
                0x0013d07c                __cxxabiv1::__class_type_info::__do_upcast(__cxxabiv1::__class_type_info const*, void**) const
 .text._ZNK10__cxxabiv117__class_type_info20__do_find_public_srcEiPKvPKS0_S2_
                0x0013d0d8       0x14 /Users/spinal/devkitPro/devkitARM/bin/../lib/gcc/arm-none-eabi/4.9.2/../../../../arm-none-eabi/lib/armv6k/fpu/libstdc++.a(class_type_info.o)
                0x0013d0d8                __cxxabiv1::__class_type_info::__do_find_public_src(int, void const*, __cxxabiv1::__class_type_info const*, void const*) const
 .text._ZN10__cxxabiv117__class_type_infoD2Ev
                0x0013d0ec       0x20 /Users/spinal/devkitPro/devkitARM/bin/../lib/gcc/arm-none-eabi/4.9.2/../../../../arm-none-eabi/lib/armv6k/fpu/libstdc++.a(class_type_info.o)
                0x0013d0ec                __cxxabiv1::__class_type_info::~__class_type_info()
                0x0013d0ec                __cxxabiv1::__class_type_info::~__class_type_info()
 .text._ZN10__cxxabiv117__class_type_infoD0Ev
                0x0013d10c       0x28 /Users/spinal/devkitPro/devkitARM/bin/../lib/gcc/arm-none-eabi/4.9.2/../../../../arm-none-eabi/lib/armv6k/fpu/libstdc++.a(class_type_info.o)
                0x0013d10c                __cxxabiv1::__class_type_info::~__class_type_info()
 .text._ZNK10__cxxabiv117__class_type_info11__do_upcastEPKS0_PKvRNS0_15__upcast_resultE
                0x0013d134       0x2c /Users/spinal/devkitPro/devkitARM/bin/../lib/gcc/arm-none-eabi/4.9.2/../../../../arm-none-eabi/lib/armv6k/fpu/libstdc++.a(class_type_info.o)
                0x0013d134                __cxxabiv1::__class_type_info::__do_upcast(__cxxabiv1::__class_type_info const*, void const*, __cxxabiv1::__class_type_info::__upcast_result&) const
 .text._ZNK10__cxxabiv117__class_type_info10__do_catchEPKSt9type_infoPPvj
                0x0013d160       0x44 /Users/spinal/devkitPro/devkitARM/bin/../lib/gcc/arm-none-eabi/4.9.2/../../../../arm-none-eabi/lib/armv6k/fpu/libstdc++.a(class_type_info.o)
                0x0013d160                __cxxabiv1::__class_type_info::__do_catch(std::type_info const*, void**, unsigned int) const
 .text._ZNK10__cxxabiv117__class_type_info12__do_dyncastEiNS0_10__sub_kindEPKS0_PKvS3_S5_RNS0_16__dyncast_resultE
                0x0013d1a4       0x78 /Users/spinal/devkitPro/devkitARM/bin/../lib/gcc/arm-none-eabi/4.9.2/../../../../arm-none-eabi/lib/armv6k/fpu/libstdc++.a(class_type_info.o)
                0x0013d1a4                __cxxabiv1::__class_type_info::__do_dyncast(int, __cxxabiv1::__class_type_info::__sub_kind, __cxxabiv1::__class_type_info const*, void const*, __cxxabiv1::__class_type_info const*, void const*, __cxxabiv1::__class_type_info::__dyncast_result&) const
 .text.__cxa_allocate_exception
                0x0013d21c       0x84 /Users/spinal/devkitPro/devkitARM/bin/../lib/gcc/arm-none-eabi/4.9.2/../../../../arm-none-eabi/lib/armv6k/fpu/libstdc++.a(eh_alloc.o)
                0x0013d21c                __cxa_allocate_exception
 .text.__cxa_free_exception
                0x0013d2a0       0x54 /Users/spinal/devkitPro/devkitARM/bin/../lib/gcc/arm-none-eabi/4.9.2/../../../../arm-none-eabi/lib/armv6k/fpu/libstdc++.a(eh_alloc.o)
                0x0013d2a0                __cxa_free_exception
 .text.__cxa_allocate_dependent_exception
                0x0013d2f4       0x7c /Users/spinal/devkitPro/devkitARM/bin/../lib/gcc/arm-none-eabi/4.9.2/../../../../arm-none-eabi/lib/armv6k/fpu/libstdc++.a(eh_alloc.o)
                0x0013d2f4                __cxa_allocate_dependent_exception
 .text.__cxa_free_dependent_exception
                0x0013d370       0x60 /Users/spinal/devkitPro/devkitARM/bin/../lib/gcc/arm-none-eabi/4.9.2/../../../../arm-none-eabi/lib/armv6k/fpu/libstdc++.a(eh_alloc.o)
                0x0013d370                __cxa_free_dependent_exception
 .text.__cxa_end_cleanup
                0x0013d3d0       0x10 /Users/spinal/devkitPro/devkitARM/bin/../lib/gcc/arm-none-eabi/4.9.2/../../../../arm-none-eabi/lib/armv6k/fpu/libstdc++.a(eh_arm.o)
                0x0013d3d0                __cxa_end_cleanup
 .text.__cxa_type_match
                0x0013d3e0      0x14c /Users/spinal/devkitPro/devkitARM/bin/../lib/gcc/arm-none-eabi/4.9.2/../../../../arm-none-eabi/lib/armv6k/fpu/libstdc++.a(eh_arm.o)
                0x0013d3e0                __cxa_type_match
 .text.__cxa_begin_cleanup
                0x0013d52c       0xb4 /Users/spinal/devkitPro/devkitARM/bin/../lib/gcc/arm-none-eabi/4.9.2/../../../../arm-none-eabi/lib/armv6k/fpu/libstdc++.a(eh_arm.o)
                0x0013d52c                __cxa_begin_cleanup
 .text.__gnu_end_cleanup
                0x0013d5e0       0xb4 /Users/spinal/devkitPro/devkitARM/bin/../lib/gcc/arm-none-eabi/4.9.2/../../../../arm-none-eabi/lib/armv6k/fpu/libstdc++.a(eh_arm.o)
                0x0013d5e0                __gnu_end_cleanup
 .text._ZN10__cxxabiv1L24__is_gxx_exception_classEPc
                0x0013d694       0x70 /Users/spinal/devkitPro/devkitARM/bin/../lib/gcc/arm-none-eabi/4.9.2/../../../../arm-none-eabi/lib/armv6k/fpu/libstdc++.a(eh_call.o)
 .text.__cxa_call_terminate
                0x0013d704       0x2c /Users/spinal/devkitPro/devkitARM/bin/../lib/gcc/arm-none-eabi/4.9.2/../../../../arm-none-eabi/lib/armv6k/fpu/libstdc++.a(eh_call.o)
                0x0013d704                __cxa_call_terminate
 .text.__cxa_call_unexpected
                0x0013d730      0x134 /Users/spinal/devkitPro/devkitARM/bin/../lib/gcc/arm-none-eabi/4.9.2/../../../../arm-none-eabi/lib/armv6k/fpu/libstdc++.a(eh_call.o)
                0x0013d730                __cxa_call_unexpected
 .text.__cxa_get_exception_ptr
                0x0013d864        0x8 /Users/spinal/devkitPro/devkitARM/bin/../lib/gcc/arm-none-eabi/4.9.2/../../../../arm-none-eabi/lib/armv6k/fpu/libstdc++.a(eh_catch.o)
                0x0013d864                __cxa_get_exception_ptr
 .text.__cxa_begin_catch
                0x0013d86c       0xe0 /Users/spinal/devkitPro/devkitARM/bin/../lib/gcc/arm-none-eabi/4.9.2/../../../../arm-none-eabi/lib/armv6k/fpu/libstdc++.a(eh_catch.o)
                0x0013d86c                __cxa_begin_catch
 .text.__cxa_end_catch
                0x0013d94c       0xd8 /Users/spinal/devkitPro/devkitARM/bin/../lib/gcc/arm-none-eabi/4.9.2/../../../../arm-none-eabi/lib/armv6k/fpu/libstdc++.a(eh_catch.o)
                0x0013d94c                __cxa_end_catch
 .text._ZSt18uncaught_exceptionv
                0x0013da24       0x18 /Users/spinal/devkitPro/devkitARM/bin/../lib/gcc/arm-none-eabi/4.9.2/../../../../arm-none-eabi/lib/armv6k/fpu/libstdc++.a(eh_catch.o)
                0x0013da24                std::uncaught_exception()
 .text._ZNSt9exceptionD2Ev
                0x0013da3c        0x4 /Users/spinal/devkitPro/devkitARM/bin/../lib/gcc/arm-none-eabi/4.9.2/../../../../arm-none-eabi/lib/armv6k/fpu/libstdc++.a(eh_exception.o)
                0x0013da3c                std::exception::~exception()
                0x0013da3c                std::exception::~exception()
 .text._ZNSt13bad_exceptionD2Ev
                0x0013da40        0x4 /Users/spinal/devkitPro/devkitARM/bin/../lib/gcc/arm-none-eabi/4.9.2/../../../../arm-none-eabi/lib/armv6k/fpu/libstdc++.a(eh_exception.o)
                0x0013da40                std::bad_exception::~bad_exception()
                0x0013da40                std::bad_exception::~bad_exception()
 .text._ZNKSt9exception4whatEv
                0x0013da44        0xc /Users/spinal/devkitPro/devkitARM/bin/../lib/gcc/arm-none-eabi/4.9.2/../../../../arm-none-eabi/lib/armv6k/fpu/libstdc++.a(eh_exception.o)
                0x0013da44                std::exception::what() const
 .text._ZNKSt13bad_exception4whatEv
                0x0013da50        0xc /Users/spinal/devkitPro/devkitARM/bin/../lib/gcc/arm-none-eabi/4.9.2/../../../../arm-none-eabi/lib/armv6k/fpu/libstdc++.a(eh_exception.o)
                0x0013da50                std::bad_exception::what() const
 .text._ZNSt9exceptionD0Ev
                0x0013da5c       0x14 /Users/spinal/devkitPro/devkitARM/bin/../lib/gcc/arm-none-eabi/4.9.2/../../../../arm-none-eabi/lib/armv6k/fpu/libstdc++.a(eh_exception.o)
                0x0013da5c                std::exception::~exception()
 .text._ZNSt13bad_exceptionD0Ev
                0x0013da70       0x14 /Users/spinal/devkitPro/devkitARM/bin/../lib/gcc/arm-none-eabi/4.9.2/../../../../arm-none-eabi/lib/armv6k/fpu/libstdc++.a(eh_exception.o)
                0x0013da70                std::bad_exception::~bad_exception()
 .text._ZN10__cxxabiv115__forced_unwindD2Ev
                0x0013da84        0x4 /Users/spinal/devkitPro/devkitARM/bin/../lib/gcc/arm-none-eabi/4.9.2/../../../../arm-none-eabi/lib/armv6k/fpu/libstdc++.a(eh_exception.o)
                0x0013da84                __cxxabiv1::__forced_unwind::~__forced_unwind()
                0x0013da84                __cxxabiv1::__forced_unwind::~__forced_unwind()
 .text._ZN10__cxxabiv115__forced_unwindD0Ev
                0x0013da88       0x14 /Users/spinal/devkitPro/devkitARM/bin/../lib/gcc/arm-none-eabi/4.9.2/../../../../arm-none-eabi/lib/armv6k/fpu/libstdc++.a(eh_exception.o)
                0x0013da88                __cxxabiv1::__forced_unwind::~__forced_unwind()
 .text._ZN10__cxxabiv119__foreign_exceptionD2Ev
                0x0013da9c        0x4 /Users/spinal/devkitPro/devkitARM/bin/../lib/gcc/arm-none-eabi/4.9.2/../../../../arm-none-eabi/lib/armv6k/fpu/libstdc++.a(eh_exception.o)
                0x0013da9c                __cxxabiv1::__foreign_exception::~__foreign_exception()
                0x0013da9c                __cxxabiv1::__foreign_exception::~__foreign_exception()
 .text._ZN10__cxxabiv119__foreign_exceptionD0Ev
                0x0013daa0       0x14 /Users/spinal/devkitPro/devkitARM/bin/../lib/gcc/arm-none-eabi/4.9.2/../../../../arm-none-eabi/lib/armv6k/fpu/libstdc++.a(eh_exception.o)
                0x0013daa0                __cxxabiv1::__foreign_exception::~__foreign_exception()
 .text.__cxa_get_globals_fast
                0x0013dab4        0xc /Users/spinal/devkitPro/devkitARM/bin/../lib/gcc/arm-none-eabi/4.9.2/../../../../arm-none-eabi/lib/armv6k/fpu/libstdc++.a(eh_globals.o)
                0x0013dab4                __cxa_get_globals_fast
 .text.__cxa_get_globals
                0x0013dac0        0xc /Users/spinal/devkitPro/devkitARM/bin/../lib/gcc/arm-none-eabi/4.9.2/../../../../arm-none-eabi/lib/armv6k/fpu/libstdc++.a(eh_globals.o)
                0x0013dac0                __cxa_get_globals
 .text._ZL12read_sleb128PKhPl
                0x0013dacc       0x40 /Users/spinal/devkitPro/devkitARM/bin/../lib/gcc/arm-none-eabi/4.9.2/../../../../arm-none-eabi/lib/armv6k/fpu/libstdc++.a(eh_personality.o)
 .text._ZL28read_encoded_value_with_basehjPKhPj
                0x0013db0c      0x1a4 /Users/spinal/devkitPro/devkitARM/bin/../lib/gcc/arm-none-eabi/4.9.2/../../../../arm-none-eabi/lib/armv6k/fpu/libstdc++.a(eh_personality.o)
 .text._ZL21base_of_encoded_valuehP15_Unwind_Context
                0x0013dcb0       0x7c /Users/spinal/devkitPro/devkitARM/bin/../lib/gcc/arm-none-eabi/4.9.2/../../../../arm-none-eabi/lib/armv6k/fpu/libstdc++.a(eh_personality.o)
 .text._ZL17parse_lsda_headerP15_Unwind_ContextPKhP16lsda_header_info
                0x0013dd2c       0xe0 /Users/spinal/devkitPro/devkitARM/bin/../lib/gcc/arm-none-eabi/4.9.2/../../../../arm-none-eabi/lib/armv6k/fpu/libstdc++.a(eh_personality.o)
 .text.__gxx_personality_v0
                0x0013de0c      0x630 /Users/spinal/devkitPro/devkitARM/bin/../lib/gcc/arm-none-eabi/4.9.2/../../../../arm-none-eabi/lib/armv6k/fpu/libstdc++.a(eh_personality.o)
                0x0013de0c                __gxx_personality_v0
 .text._ZN10__cxxabiv111__terminateEPFvvE
                0x0013e43c       0x34 /Users/spinal/devkitPro/devkitARM/bin/../lib/gcc/arm-none-eabi/4.9.2/../../../../arm-none-eabi/lib/armv6k/fpu/libstdc++.a(eh_terminate.o)
                0x0013e43c                __cxxabiv1::__terminate(void (*)())
 .text._ZSt9terminatev
                0x0013e470       0x18 /Users/spinal/devkitPro/devkitARM/bin/../lib/gcc/arm-none-eabi/4.9.2/../../../../arm-none-eabi/lib/armv6k/fpu/libstdc++.a(eh_terminate.o)
                0x0013e470                std::terminate()
 .text._ZN10__cxxabiv112__unexpectedEPFvvE
                0x0013e488        0xc /Users/spinal/devkitPro/devkitARM/bin/../lib/gcc/arm-none-eabi/4.9.2/../../../../arm-none-eabi/lib/armv6k/fpu/libstdc++.a(eh_terminate.o)
                0x0013e488                __cxxabiv1::__unexpected(void (*)())
 .text._ZSt10unexpectedv
                0x0013e494       0x18 /Users/spinal/devkitPro/devkitARM/bin/../lib/gcc/arm-none-eabi/4.9.2/../../../../arm-none-eabi/lib/armv6k/fpu/libstdc++.a(eh_terminate.o)
                0x0013e494                std::unexpected()
 .text._ZSt13set_terminatePFvvE
                0x0013e4ac       0x28 /Users/spinal/devkitPro/devkitARM/bin/../lib/gcc/arm-none-eabi/4.9.2/../../../../arm-none-eabi/lib/armv6k/fpu/libstdc++.a(eh_terminate.o)
                0x0013e4ac                std::set_terminate(void (*)())
 .text._ZSt13get_terminatev
                0x0013e4d4       0x14 /Users/spinal/devkitPro/devkitARM/bin/../lib/gcc/arm-none-eabi/4.9.2/../../../../arm-none-eabi/lib/armv6k/fpu/libstdc++.a(eh_terminate.o)
                0x0013e4d4                std::get_terminate()
 .text._ZSt14set_unexpectedPFvvE
                0x0013e4e8       0x28 /Users/spinal/devkitPro/devkitARM/bin/../lib/gcc/arm-none-eabi/4.9.2/../../../../arm-none-eabi/lib/armv6k/fpu/libstdc++.a(eh_terminate.o)
                0x0013e4e8                std::set_unexpected(void (*)())
 .text._ZSt14get_unexpectedv
                0x0013e510       0x14 /Users/spinal/devkitPro/devkitARM/bin/../lib/gcc/arm-none-eabi/4.9.2/../../../../arm-none-eabi/lib/armv6k/fpu/libstdc++.a(eh_terminate.o)
                0x0013e510                std::get_unexpected()
 .text._ZL23__gxx_exception_cleanup19_Unwind_Reason_CodeP21_Unwind_Control_Block
                0x0013e524       0x60 /Users/spinal/devkitPro/devkitARM/bin/../lib/gcc/arm-none-eabi/4.9.2/../../../../arm-none-eabi/lib/armv6k/fpu/libstdc++.a(eh_throw.o)
 .text.__cxa_throw
                0x0013e584       0x9c /Users/spinal/devkitPro/devkitARM/bin/../lib/gcc/arm-none-eabi/4.9.2/../../../../arm-none-eabi/lib/armv6k/fpu/libstdc++.a(eh_throw.o)
                0x0013e584                __cxa_throw
 .text.__cxa_rethrow
                0x0013e620       0xb0 /Users/spinal/devkitPro/devkitARM/bin/../lib/gcc/arm-none-eabi/4.9.2/../../../../arm-none-eabi/lib/armv6k/fpu/libstdc++.a(eh_throw.o)
                0x0013e620                __cxa_rethrow
 .text._ZSt15set_new_handlerPFvvE
                0x0013e6d0       0x28 /Users/spinal/devkitPro/devkitARM/bin/../lib/gcc/arm-none-eabi/4.9.2/../../../../arm-none-eabi/lib/armv6k/fpu/libstdc++.a(new_handler.o)
                0x0013e6d0                std::set_new_handler(void (*)())
 .text._ZSt15get_new_handlerv
                0x0013e6f8       0x14 /Users/spinal/devkitPro/devkitARM/bin/../lib/gcc/arm-none-eabi/4.9.2/../../../../arm-none-eabi/lib/armv6k/fpu/libstdc++.a(new_handler.o)
                0x0013e6f8                std::get_new_handler()
 .text._ZN9__gnu_cxx27__verbose_terminate_handlerEv
                0x0013e70c      0x1ac /Users/spinal/devkitPro/devkitARM/bin/../lib/gcc/arm-none-eabi/4.9.2/../../../../arm-none-eabi/lib/armv6k/fpu/libstdc++.a(vterminate.o)
                0x0013e70c                __gnu_cxx::__verbose_terminate_handler()
 .text.__cxa_current_exception_type
                0x0013e8b8       0x2c /Users/spinal/devkitPro/devkitARM/bin/../lib/gcc/arm-none-eabi/4.9.2/../../../../arm-none-eabi/lib/armv6k/fpu/libstdc++.a(eh_type.o)
                0x0013e8b8                __cxa_current_exception_type
 *fill*         0x0013e8e4        0x4 
 .text.cos      0x0013e8e8       0xb0 /Users/spinal/devkitPro/devkitARM/bin/../lib/gcc/arm-none-eabi/4.9.2/../../../../arm-none-eabi/lib/armv6k/fpu/libm.a(lib_a-s_cos.o)
                0x0013e8e8                cos
 .text.sin      0x0013e998       0xb8 /Users/spinal/devkitPro/devkitARM/bin/../lib/gcc/arm-none-eabi/4.9.2/../../../../arm-none-eabi/lib/armv6k/fpu/libm.a(lib_a-s_sin.o)
                0x0013e998                sin
 .text.__ieee754_rem_pio2
                0x0013ea50      0x308 /Users/spinal/devkitPro/devkitARM/bin/../lib/gcc/arm-none-eabi/4.9.2/../../../../arm-none-eabi/lib/armv6k/fpu/libm.a(lib_a-e_rem_pio2.o)
                0x0013ea50                __ieee754_rem_pio2
 .text.__kernel_cos
                0x0013ed58      0x158 /Users/spinal/devkitPro/devkitARM/bin/../lib/gcc/arm-none-eabi/4.9.2/../../../../arm-none-eabi/lib/armv6k/fpu/libm.a(lib_a-k_cos.o)
                0x0013ed58                __kernel_cos
 .text.__kernel_rem_pio2
                0x0013eeb0      0x898 /Users/spinal/devkitPro/devkitARM/bin/../lib/gcc/arm-none-eabi/4.9.2/../../../../arm-none-eabi/lib/armv6k/fpu/libm.a(lib_a-k_rem_pio2.o)
                0x0013eeb0                __kernel_rem_pio2
 .text.__kernel_sin
                0x0013f748       0xc0 /Users/spinal/devkitPro/devkitARM/bin/../lib/gcc/arm-none-eabi/4.9.2/../../../../arm-none-eabi/lib/armv6k/fpu/libm.a(lib_a-k_sin.o)
                0x0013f748                __kernel_sin
 .text.fabs     0x0013f808       0x10 /Users/spinal/devkitPro/devkitARM/bin/../lib/gcc/arm-none-eabi/4.9.2/../../../../arm-none-eabi/lib/armv6k/fpu/libm.a(lib_a-s_fabs.o)
                0x0013f808                fabs
 .text.floor    0x0013f818      0x180 /Users/spinal/devkitPro/devkitARM/bin/../lib/gcc/arm-none-eabi/4.9.2/../../../../arm-none-eabi/lib/armv6k/fpu/libm.a(lib_a-s_floor.o)
                0x0013f818                floor
 .text.scalbn   0x0013f998      0x198 /Users/spinal/devkitPro/devkitARM/bin/../lib/gcc/arm-none-eabi/4.9.2/../../../../arm-none-eabi/lib/armv6k/fpu/libm.a(lib_a-s_scalbn.o)
                0x0013f998                scalbn
 .text.copysign
                0x0013fb30       0x1c /Users/spinal/devkitPro/devkitARM/bin/../lib/gcc/arm-none-eabi/4.9.2/../../../../arm-none-eabi/lib/armv6k/fpu/libm.a(lib_a-s_copysign.o)
                0x0013fb30                copysign
 .text.abort    0x0013fb4c       0x14 /Users/spinal/devkitPro/devkitARM/bin/../lib/gcc/arm-none-eabi/4.9.2/../../../../arm-none-eabi/lib/armv6k/fpu/libg.a(lib_a-abort.o)
                0x0013fb4c                abort
 .text.atoi     0x0013fb60        0xc /Users/spinal/devkitPro/devkitARM/bin/../lib/gcc/arm-none-eabi/4.9.2/../../../../arm-none-eabi/lib/armv6k/fpu/libg.a(lib_a-atoi.o)
                0x0013fb60                atoi
 .text._atoi_r  0x0013fb6c        0xc /Users/spinal/devkitPro/devkitARM/bin/../lib/gcc/arm-none-eabi/4.9.2/../../../../arm-none-eabi/lib/armv6k/fpu/libg.a(lib_a-atoi.o)
                0x0013fb6c                _atoi_r
 .text.bsearch  0x0013fb78       0x78 /Users/spinal/devkitPro/devkitARM/bin/../lib/gcc/arm-none-eabi/4.9.2/../../../../arm-none-eabi/lib/armv6k/fpu/libg.a(lib_a-bsearch.o)
                0x0013fb78                bsearch
 .text._fclose_r
                0x0013fbf0      0x118 /Users/spinal/devkitPro/devkitARM/bin/../lib/gcc/arm-none-eabi/4.9.2/../../../../arm-none-eabi/lib/armv6k/fpu/libg.a(lib_a-fclose.o)
                0x0013fbf0                _fclose_r
 .text.fclose   0x0013fd08       0x18 /Users/spinal/devkitPro/devkitARM/bin/../lib/gcc/arm-none-eabi/4.9.2/../../../../arm-none-eabi/lib/armv6k/fpu/libg.a(lib_a-fclose.o)
                0x0013fd08                fclose
 .text.__sflush_r
                0x0013fd20      0x238 /Users/spinal/devkitPro/devkitARM/bin/../lib/gcc/arm-none-eabi/4.9.2/../../../../arm-none-eabi/lib/armv6k/fpu/libg.a(lib_a-fflush.o)
                0x0013fd20                __sflush_r
 .text._fflush_r
                0x0013ff58       0x98 /Users/spinal/devkitPro/devkitARM/bin/../lib/gcc/arm-none-eabi/4.9.2/../../../../arm-none-eabi/lib/armv6k/fpu/libg.a(lib_a-fflush.o)
                0x0013ff58                _fflush_r
 .text.fflush   0x0013fff0       0x38 /Users/spinal/devkitPro/devkitARM/bin/../lib/gcc/arm-none-eabi/4.9.2/../../../../arm-none-eabi/lib/armv6k/fpu/libg.a(lib_a-fflush.o)
                0x0013fff0                fflush
 .text._fgetc_r
                0x00140028       0xb0 /Users/spinal/devkitPro/devkitARM/bin/../lib/gcc/arm-none-eabi/4.9.2/../../../../arm-none-eabi/lib/armv6k/fpu/libg.a(lib_a-fgetc.o)
                0x00140028                _fgetc_r
 .text.fgetc    0x001400d8       0xb4 /Users/spinal/devkitPro/devkitARM/bin/../lib/gcc/arm-none-eabi/4.9.2/../../../../arm-none-eabi/lib/armv6k/fpu/libg.a(lib_a-fgetc.o)
                0x001400d8                fgetc
 .text._fgets_r
                0x0014018c      0x1a0 /Users/spinal/devkitPro/devkitARM/bin/../lib/gcc/arm-none-eabi/4.9.2/../../../../arm-none-eabi/lib/armv6k/fpu/libg.a(lib_a-fgets.o)
                0x0014018c                _fgets_r
 .text.fgets    0x0014032c       0x28 /Users/spinal/devkitPro/devkitARM/bin/../lib/gcc/arm-none-eabi/4.9.2/../../../../arm-none-eabi/lib/armv6k/fpu/libg.a(lib_a-fgets.o)
                0x0014032c                fgets
 .text._cleanup_r
                0x00140354        0xc /Users/spinal/devkitPro/devkitARM/bin/../lib/gcc/arm-none-eabi/4.9.2/../../../../arm-none-eabi/lib/armv6k/fpu/libg.a(lib_a-findfp.o)
                0x00140354                _cleanup_r
 .text.__fp_lock
                0x00140360       0x1c /Users/spinal/devkitPro/devkitARM/bin/../lib/gcc/arm-none-eabi/4.9.2/../../../../arm-none-eabi/lib/armv6k/fpu/libg.a(lib_a-findfp.o)
 .text.__fp_unlock
                0x0014037c       0x1c /Users/spinal/devkitPro/devkitARM/bin/../lib/gcc/arm-none-eabi/4.9.2/../../../../arm-none-eabi/lib/armv6k/fpu/libg.a(lib_a-findfp.o)
 .text.__sinit.part.1
                0x00140398      0x15c /Users/spinal/devkitPro/devkitARM/bin/../lib/gcc/arm-none-eabi/4.9.2/../../../../arm-none-eabi/lib/armv6k/fpu/libg.a(lib_a-findfp.o)
 .text.__sfmoreglue
                0x001404f4       0x48 /Users/spinal/devkitPro/devkitARM/bin/../lib/gcc/arm-none-eabi/4.9.2/../../../../arm-none-eabi/lib/armv6k/fpu/libg.a(lib_a-findfp.o)
                0x001404f4                __sfmoreglue
 .text.__sfp    0x0014053c       0xe8 /Users/spinal/devkitPro/devkitARM/bin/../lib/gcc/arm-none-eabi/4.9.2/../../../../arm-none-eabi/lib/armv6k/fpu/libg.a(lib_a-findfp.o)
                0x0014053c                __sfp
 .text._cleanup
                0x00140624       0x18 /Users/spinal/devkitPro/devkitARM/bin/../lib/gcc/arm-none-eabi/4.9.2/../../../../arm-none-eabi/lib/armv6k/fpu/libg.a(lib_a-findfp.o)
                0x00140624                _cleanup
 .text.__sinit  0x0014063c       0x10 /Users/spinal/devkitPro/devkitARM/bin/../lib/gcc/arm-none-eabi/4.9.2/../../../../arm-none-eabi/lib/armv6k/fpu/libg.a(lib_a-findfp.o)
                0x0014063c                __sinit
 .text.__sfp_lock_acquire
                0x0014064c        0x4 /Users/spinal/devkitPro/devkitARM/bin/../lib/gcc/arm-none-eabi/4.9.2/../../../../arm-none-eabi/lib/armv6k/fpu/libg.a(lib_a-findfp.o)
                0x0014064c                __sfp_lock_acquire
 .text.__sfp_lock_release
                0x00140650        0x4 /Users/spinal/devkitPro/devkitARM/bin/../lib/gcc/arm-none-eabi/4.9.2/../../../../arm-none-eabi/lib/armv6k/fpu/libg.a(lib_a-findfp.o)
                0x00140650                __sfp_lock_release
 .text.__sinit_lock_acquire
                0x00140654        0x4 /Users/spinal/devkitPro/devkitARM/bin/../lib/gcc/arm-none-eabi/4.9.2/../../../../arm-none-eabi/lib/armv6k/fpu/libg.a(lib_a-findfp.o)
                0x00140654                __sinit_lock_acquire
 .text.__sinit_lock_release
                0x00140658        0x4 /Users/spinal/devkitPro/devkitARM/bin/../lib/gcc/arm-none-eabi/4.9.2/../../../../arm-none-eabi/lib/armv6k/fpu/libg.a(lib_a-findfp.o)
                0x00140658                __sinit_lock_release
 .text.__fp_lock_all
                0x0014065c       0x18 /Users/spinal/devkitPro/devkitARM/bin/../lib/gcc/arm-none-eabi/4.9.2/../../../../arm-none-eabi/lib/armv6k/fpu/libg.a(lib_a-findfp.o)
                0x0014065c                __fp_lock_all
 .text.__fp_unlock_all
                0x00140674       0x18 /Users/spinal/devkitPro/devkitARM/bin/../lib/gcc/arm-none-eabi/4.9.2/../../../../arm-none-eabi/lib/armv6k/fpu/libg.a(lib_a-findfp.o)
                0x00140674                __fp_unlock_all
 .text.__libc_fini_array
                0x0014068c       0x40 /Users/spinal/devkitPro/devkitARM/bin/../lib/gcc/arm-none-eabi/4.9.2/../../../../arm-none-eabi/lib/armv6k/fpu/libg.a(lib_a-fini.o)
                0x0014068c                __libc_fini_array
 .text._fopen_r
                0x001406cc      0x130 /Users/spinal/devkitPro/devkitARM/bin/../lib/gcc/arm-none-eabi/4.9.2/../../../../arm-none-eabi/lib/armv6k/fpu/libg.a(lib_a-fopen.o)
                0x001406cc                _fopen_r
 .text.fopen    0x001407fc       0x20 /Users/spinal/devkitPro/devkitARM/bin/../lib/gcc/arm-none-eabi/4.9.2/../../../../arm-none-eabi/lib/armv6k/fpu/libg.a(lib_a-fopen.o)
                0x001407fc                fopen
 .text._fprintf_r
                0x0014081c       0x30 /Users/spinal/devkitPro/devkitARM/bin/../lib/gcc/arm-none-eabi/4.9.2/../../../../arm-none-eabi/lib/armv6k/fpu/libg.a(lib_a-fprintf.o)
                0x0014081c                _fprintf_r
 .text.fprintf  0x0014084c       0x3c /Users/spinal/devkitPro/devkitARM/bin/../lib/gcc/arm-none-eabi/4.9.2/../../../../arm-none-eabi/lib/armv6k/fpu/libg.a(lib_a-fprintf.o)
                0x0014084c                fprintf
 .text._fputc_r
                0x00140888       0xa4 /Users/spinal/devkitPro/devkitARM/bin/../lib/gcc/arm-none-eabi/4.9.2/../../../../arm-none-eabi/lib/armv6k/fpu/libg.a(lib_a-fputc.o)
                0x00140888                _fputc_r
 .text.fputc    0x0014092c       0x94 /Users/spinal/devkitPro/devkitARM/bin/../lib/gcc/arm-none-eabi/4.9.2/../../../../arm-none-eabi/lib/armv6k/fpu/libg.a(lib_a-fputc.o)
                0x0014092c                fputc
 .text._fputs_r
                0x001409c0       0xe8 /Users/spinal/devkitPro/devkitARM/bin/../lib/gcc/arm-none-eabi/4.9.2/../../../../arm-none-eabi/lib/armv6k/fpu/libg.a(lib_a-fputs.o)
                0x001409c0                _fputs_r
 .text.fputs    0x00140aa8       0x20 /Users/spinal/devkitPro/devkitARM/bin/../lib/gcc/arm-none-eabi/4.9.2/../../../../arm-none-eabi/lib/armv6k/fpu/libg.a(lib_a-fputs.o)
                0x00140aa8                fputs
 .text._fread_r
                0x00140ac8      0x2f0 /Users/spinal/devkitPro/devkitARM/bin/../lib/gcc/arm-none-eabi/4.9.2/../../../../arm-none-eabi/lib/armv6k/fpu/libg.a(lib_a-fread.o)
                0x00140ac8                _fread_r
 .text.fread    0x00140db8       0x38 /Users/spinal/devkitPro/devkitARM/bin/../lib/gcc/arm-none-eabi/4.9.2/../../../../arm-none-eabi/lib/armv6k/fpu/libg.a(lib_a-fread.o)
                0x00140db8                fread
 .text._malloc_trim_r
                0x00140df0       0xf8 /Users/spinal/devkitPro/devkitARM/bin/../lib/gcc/arm-none-eabi/4.9.2/../../../../arm-none-eabi/lib/armv6k/fpu/libg.a(lib_a-freer.o)
                0x00140df0                _malloc_trim_r
 .text._free_r  0x00140ee8      0x2b4 /Users/spinal/devkitPro/devkitARM/bin/../lib/gcc/arm-none-eabi/4.9.2/../../../../arm-none-eabi/lib/armv6k/fpu/libg.a(lib_a-freer.o)
                0x00140ee8                _free_r
 .text.fscanf   0x0014119c       0x3c /Users/spinal/devkitPro/devkitARM/bin/../lib/gcc/arm-none-eabi/4.9.2/../../../../arm-none-eabi/lib/armv6k/fpu/libg.a(lib_a-fscanf.o)
                0x0014119c                fscanf
 .text._fscanf_r
                0x001411d8       0x30 /Users/spinal/devkitPro/devkitARM/bin/../lib/gcc/arm-none-eabi/4.9.2/../../../../arm-none-eabi/lib/armv6k/fpu/libg.a(lib_a-fscanf.o)
                0x001411d8                _fscanf_r
 .text._fseek_r
                0x00141208        0x4 /Users/spinal/devkitPro/devkitARM/bin/../lib/gcc/arm-none-eabi/4.9.2/../../../../arm-none-eabi/lib/armv6k/fpu/libg.a(lib_a-fseek.o)
                0x00141208                _fseek_r
 .text.fseek    0x0014120c       0x28 /Users/spinal/devkitPro/devkitARM/bin/../lib/gcc/arm-none-eabi/4.9.2/../../../../arm-none-eabi/lib/armv6k/fpu/libg.a(lib_a-fseek.o)
                0x0014120c                fseek
 .text._fseeko_r
                0x00141234      0x4f8 /Users/spinal/devkitPro/devkitARM/bin/../lib/gcc/arm-none-eabi/4.9.2/../../../../arm-none-eabi/lib/armv6k/fpu/libg.a(lib_a-fseeko.o)
                0x00141234                _fseeko_r
 .text.fseeko   0x0014172c       0x28 /Users/spinal/devkitPro/devkitARM/bin/../lib/gcc/arm-none-eabi/4.9.2/../../../../arm-none-eabi/lib/armv6k/fpu/libg.a(lib_a-fseeko.o)
                0x0014172c                fseeko
 .text._ftell_r
                0x00141754        0x4 /Users/spinal/devkitPro/devkitARM/bin/../lib/gcc/arm-none-eabi/4.9.2/../../../../arm-none-eabi/lib/armv6k/fpu/libg.a(lib_a-ftell.o)
                0x00141754                _ftell_r
 .text.ftell    0x00141758       0x18 /Users/spinal/devkitPro/devkitARM/bin/../lib/gcc/arm-none-eabi/4.9.2/../../../../arm-none-eabi/lib/armv6k/fpu/libg.a(lib_a-ftell.o)
                0x00141758                ftell
 .text._ftello_r
                0x00141770      0x164 /Users/spinal/devkitPro/devkitARM/bin/../lib/gcc/arm-none-eabi/4.9.2/../../../../arm-none-eabi/lib/armv6k/fpu/libg.a(lib_a-ftello.o)
                0x00141770                _ftello_r
 .text.ftello   0x001418d4       0x18 /Users/spinal/devkitPro/devkitARM/bin/../lib/gcc/arm-none-eabi/4.9.2/../../../../arm-none-eabi/lib/armv6k/fpu/libg.a(lib_a-ftello.o)
                0x001418d4                ftello
 .text.__sfvwrite_r
                0x001418ec      0x4c4 /Users/spinal/devkitPro/devkitARM/bin/../lib/gcc/arm-none-eabi/4.9.2/../../../../arm-none-eabi/lib/armv6k/fpu/libg.a(lib_a-fvwrite.o)
                0x001418ec                __sfvwrite_r
 .text._fwalk   0x00141db0       0x78 /Users/spinal/devkitPro/devkitARM/bin/../lib/gcc/arm-none-eabi/4.9.2/../../../../arm-none-eabi/lib/armv6k/fpu/libg.a(lib_a-fwalk.o)
                0x00141db0                _fwalk
 .text._fwalk_reent
                0x00141e28       0x80 /Users/spinal/devkitPro/devkitARM/bin/../lib/gcc/arm-none-eabi/4.9.2/../../../../arm-none-eabi/lib/armv6k/fpu/libg.a(lib_a-fwalk.o)
                0x00141e28                _fwalk_reent
 .text._fwrite_r
                0x00141ea8      0x11c /Users/spinal/devkitPro/devkitARM/bin/../lib/gcc/arm-none-eabi/4.9.2/../../../../arm-none-eabi/lib/armv6k/fpu/libg.a(lib_a-fwrite.o)
                0x00141ea8                _fwrite_r
 .text.fwrite   0x00141fc4       0x38 /Users/spinal/devkitPro/devkitARM/bin/../lib/gcc/arm-none-eabi/4.9.2/../../../../arm-none-eabi/lib/armv6k/fpu/libg.a(lib_a-fwrite.o)
                0x00141fc4                fwrite
 .text.__libc_init_array
                0x00141ffc       0x78 /Users/spinal/devkitPro/devkitARM/bin/../lib/gcc/arm-none-eabi/4.9.2/../../../../arm-none-eabi/lib/armv6k/fpu/libg.a(lib_a-init.o)
                0x00141ffc                __libc_init_array
 .text.iprintf  0x00142074       0x38 /Users/spinal/devkitPro/devkitARM/bin/../lib/gcc/arm-none-eabi/4.9.2/../../../../arm-none-eabi/lib/armv6k/fpu/libg.a(lib_a-iprintf.o)
                0x00142074                iprintf
 .text._iprintf_r
                0x001420ac       0x34 /Users/spinal/devkitPro/devkitARM/bin/../lib/gcc/arm-none-eabi/4.9.2/../../../../arm-none-eabi/lib/armv6k/fpu/libg.a(lib_a-iprintf.o)
                0x001420ac                _iprintf_r
 .text.__smakebuf_r
                0x001420e0      0x160 /Users/spinal/devkitPro/devkitARM/bin/../lib/gcc/arm-none-eabi/4.9.2/../../../../arm-none-eabi/lib/armv6k/fpu/libg.a(lib_a-makebuf.o)
                0x001420e0                __smakebuf_r
 .text.malloc   0x00142240       0x18 /Users/spinal/devkitPro/devkitARM/bin/../lib/gcc/arm-none-eabi/4.9.2/../../../../arm-none-eabi/lib/armv6k/fpu/libg.a(lib_a-malloc.o)
                0x00142240                malloc
 .text.free     0x00142258       0x18 /Users/spinal/devkitPro/devkitARM/bin/../lib/gcc/arm-none-eabi/4.9.2/../../../../arm-none-eabi/lib/armv6k/fpu/libg.a(lib_a-malloc.o)
                0x00142258                free
 .text._malloc_r
                0x00142270      0x740 /Users/spinal/devkitPro/devkitARM/bin/../lib/gcc/arm-none-eabi/4.9.2/../../../../arm-none-eabi/lib/armv6k/fpu/libg.a(lib_a-mallocr.o)
                0x00142270                _malloc_r
 .text.memchr   0x001429b0      0x120 /Users/spinal/devkitPro/devkitARM/bin/../lib/gcc/arm-none-eabi/4.9.2/../../../../arm-none-eabi/lib/armv6k/fpu/libg.a(lib_a-memchr.o)
                0x001429b0                memchr
 .text.memcmp   0x00142ad0       0xa8 /Users/spinal/devkitPro/devkitARM/bin/../lib/gcc/arm-none-eabi/4.9.2/../../../../arm-none-eabi/lib/armv6k/fpu/libg.a(lib_a-memcmp.o)
                0x00142ad0                memcmp
 .text.memcpy   0x00142b78       0xf4 /Users/spinal/devkitPro/devkitARM/bin/../lib/gcc/arm-none-eabi/4.9.2/../../../../arm-none-eabi/lib/armv6k/fpu/libg.a(lib_a-memcpy.o)
                0x00142b78                memcpy
 .text.memmove  0x00142c6c      0x12c /Users/spinal/devkitPro/devkitARM/bin/../lib/gcc/arm-none-eabi/4.9.2/../../../../arm-none-eabi/lib/armv6k/fpu/libg.a(lib_a-memmove.o)
                0x00142c6c                memmove
 .text.memset   0x00142d98       0xf0 /Users/spinal/devkitPro/devkitARM/bin/../lib/gcc/arm-none-eabi/4.9.2/../../../../arm-none-eabi/lib/armv6k/fpu/libg.a(lib_a-memset.o)
                0x00142d98                memset
 .text.__malloc_lock
                0x00142e88        0x4 /Users/spinal/devkitPro/devkitARM/bin/../lib/gcc/arm-none-eabi/4.9.2/../../../../arm-none-eabi/lib/armv6k/fpu/libg.a(lib_a-mlock.o)
                0x00142e88                __malloc_lock
 .text.__malloc_unlock
                0x00142e8c        0x4 /Users/spinal/devkitPro/devkitARM/bin/../lib/gcc/arm-none-eabi/4.9.2/../../../../arm-none-eabi/lib/armv6k/fpu/libg.a(lib_a-mlock.o)
                0x00142e8c                __malloc_unlock
 .text._printf_r
                0x00142e90       0x34 /Users/spinal/devkitPro/devkitARM/bin/../lib/gcc/arm-none-eabi/4.9.2/../../../../arm-none-eabi/lib/armv6k/fpu/libg.a(lib_a-printf.o)
                0x00142e90                _printf_r
 .text.printf   0x00142ec4       0x38 /Users/spinal/devkitPro/devkitARM/bin/../lib/gcc/arm-none-eabi/4.9.2/../../../../arm-none-eabi/lib/armv6k/fpu/libg.a(lib_a-printf.o)
                0x00142ec4                printf
 .text._putc_r  0x00142efc       0xf8 /Users/spinal/devkitPro/devkitARM/bin/../lib/gcc/arm-none-eabi/4.9.2/../../../../arm-none-eabi/lib/armv6k/fpu/libg.a(lib_a-putc.o)
                0x00142efc                _putc_r
 .text.putc     0x00142ff4       0xfc /Users/spinal/devkitPro/devkitARM/bin/../lib/gcc/arm-none-eabi/4.9.2/../../../../arm-none-eabi/lib/armv6k/fpu/libg.a(lib_a-putc.o)
                0x00142ff4                putc
 .text._puts_r  0x001430f0       0xec /Users/spinal/devkitPro/devkitARM/bin/../lib/gcc/arm-none-eabi/4.9.2/../../../../arm-none-eabi/lib/armv6k/fpu/libg.a(lib_a-puts.o)
                0x001430f0                _puts_r
 .text.puts     0x001431dc       0x18 /Users/spinal/devkitPro/devkitARM/bin/../lib/gcc/arm-none-eabi/4.9.2/../../../../arm-none-eabi/lib/armv6k/fpu/libg.a(lib_a-puts.o)
                0x001431dc                puts
 .text.srand    0x001431f4       0x1c /Users/spinal/devkitPro/devkitARM/bin/../lib/gcc/arm-none-eabi/4.9.2/../../../../arm-none-eabi/lib/armv6k/fpu/libg.a(lib_a-rand.o)
                0x001431f4                srand
 .text.rand     0x00143210       0x44 /Users/spinal/devkitPro/devkitARM/bin/../lib/gcc/arm-none-eabi/4.9.2/../../../../arm-none-eabi/lib/armv6k/fpu/libg.a(lib_a-rand.o)
                0x00143210                rand
 .text.realloc  0x00143254       0x20 /Users/spinal/devkitPro/devkitARM/bin/../lib/gcc/arm-none-eabi/4.9.2/../../../../arm-none-eabi/lib/armv6k/fpu/libg.a(lib_a-realloc.o)
                0x00143254                realloc
 .text._realloc_r
                0x00143274      0x564 /Users/spinal/devkitPro/devkitARM/bin/../lib/gcc/arm-none-eabi/4.9.2/../../../../arm-none-eabi/lib/armv6k/fpu/libg.a(lib_a-reallocr.o)
                0x00143274                _realloc_r
 .text.lflush   0x001437d8       0x1c /Users/spinal/devkitPro/devkitARM/bin/../lib/gcc/arm-none-eabi/4.9.2/../../../../arm-none-eabi/lib/armv6k/fpu/libg.a(lib_a-refill.o)
 .text.__srefill_r
                0x001437f4      0x1d8 /Users/spinal/devkitPro/devkitARM/bin/../lib/gcc/arm-none-eabi/4.9.2/../../../../arm-none-eabi/lib/armv6k/fpu/libg.a(lib_a-refill.o)
                0x001437f4                __srefill_r
 .text._remove_r
                0x001439cc       0x1c /Users/spinal/devkitPro/devkitARM/bin/../lib/gcc/arm-none-eabi/4.9.2/../../../../arm-none-eabi/lib/armv6k/fpu/libg.a(lib_a-remove.o)
                0x001439cc                _remove_r
 .text.remove   0x001439e8       0x28 /Users/spinal/devkitPro/devkitARM/bin/../lib/gcc/arm-none-eabi/4.9.2/../../../../arm-none-eabi/lib/armv6k/fpu/libg.a(lib_a-remove.o)
                0x001439e8                remove
 .text.__srget_r
                0x00143a10       0x50 /Users/spinal/devkitPro/devkitARM/bin/../lib/gcc/arm-none-eabi/4.9.2/../../../../arm-none-eabi/lib/armv6k/fpu/libg.a(lib_a-rget.o)
                0x00143a10                __srget_r
 .text.__srget  0x00143a60       0x18 /Users/spinal/devkitPro/devkitARM/bin/../lib/gcc/arm-none-eabi/4.9.2/../../../../arm-none-eabi/lib/armv6k/fpu/libg.a(lib_a-rget.o)
                0x00143a60                __srget
 .text._init_signal_r
                0x00143a78       0x60 /Users/spinal/devkitPro/devkitARM/bin/../lib/gcc/arm-none-eabi/4.9.2/../../../../arm-none-eabi/lib/armv6k/fpu/libg.a(lib_a-signal.o)
                0x00143a78                _init_signal_r
 .text._signal_r
                0x00143ad8       0x5c /Users/spinal/devkitPro/devkitARM/bin/../lib/gcc/arm-none-eabi/4.9.2/../../../../arm-none-eabi/lib/armv6k/fpu/libg.a(lib_a-signal.o)
                0x00143ad8                _signal_r
 .text._raise_r
                0x00143b34       0x98 /Users/spinal/devkitPro/devkitARM/bin/../lib/gcc/arm-none-eabi/4.9.2/../../../../arm-none-eabi/lib/armv6k/fpu/libg.a(lib_a-signal.o)
                0x00143b34                _raise_r
 .text.__sigtramp_r
                0x00143bcc       0x94 /Users/spinal/devkitPro/devkitARM/bin/../lib/gcc/arm-none-eabi/4.9.2/../../../../arm-none-eabi/lib/armv6k/fpu/libg.a(lib_a-signal.o)
                0x00143bcc                __sigtramp_r
 .text.raise    0x00143c60       0x18 /Users/spinal/devkitPro/devkitARM/bin/../lib/gcc/arm-none-eabi/4.9.2/../../../../arm-none-eabi/lib/armv6k/fpu/libg.a(lib_a-signal.o)
                0x00143c60                raise
 .text.signal   0x00143c78       0x20 /Users/spinal/devkitPro/devkitARM/bin/../lib/gcc/arm-none-eabi/4.9.2/../../../../arm-none-eabi/lib/armv6k/fpu/libg.a(lib_a-signal.o)
                0x00143c78                signal
 .text._init_signal
                0x00143c98       0x10 /Users/spinal/devkitPro/devkitARM/bin/../lib/gcc/arm-none-eabi/4.9.2/../../../../arm-none-eabi/lib/armv6k/fpu/libg.a(lib_a-signal.o)
                0x00143c98                _init_signal
 .text.__sigtramp
                0x00143ca8       0x18 /Users/spinal/devkitPro/devkitARM/bin/../lib/gcc/arm-none-eabi/4.9.2/../../../../arm-none-eabi/lib/armv6k/fpu/libg.a(lib_a-signal.o)
                0x00143ca8                __sigtramp
 .text._sprintf_r
                0x00143cc0       0x68 /Users/spinal/devkitPro/devkitARM/bin/../lib/gcc/arm-none-eabi/4.9.2/../../../../arm-none-eabi/lib/armv6k/fpu/libg.a(lib_a-sprintf.o)
                0x00143cc0                _sprintf_r
 .text.sprintf  0x00143d28       0x68 /Users/spinal/devkitPro/devkitARM/bin/../lib/gcc/arm-none-eabi/4.9.2/../../../../arm-none-eabi/lib/armv6k/fpu/libg.a(lib_a-sprintf.o)
                0x00143d28                sprintf
 .text.sscanf   0x00143d90       0x74 /Users/spinal/devkitPro/devkitARM/bin/../lib/gcc/arm-none-eabi/4.9.2/../../../../arm-none-eabi/lib/armv6k/fpu/libg.a(lib_a-sscanf.o)
                0x00143d90                sscanf
 .text._sscanf_r
                0x00143e04       0x80 /Users/spinal/devkitPro/devkitARM/bin/../lib/gcc/arm-none-eabi/4.9.2/../../../../arm-none-eabi/lib/armv6k/fpu/libg.a(lib_a-sscanf.o)
                0x00143e04                _sscanf_r
 .text.__sread  0x00143e84       0x30 /Users/spinal/devkitPro/devkitARM/bin/../lib/gcc/arm-none-eabi/4.9.2/../../../../arm-none-eabi/lib/armv6k/fpu/libg.a(lib_a-stdio.o)
                0x00143e84                __sread
 .text.__seofread
                0x00143eb4        0x8 /Users/spinal/devkitPro/devkitARM/bin/../lib/gcc/arm-none-eabi/4.9.2/../../../../arm-none-eabi/lib/armv6k/fpu/libg.a(lib_a-stdio.o)
                0x00143eb4                __seofread
 .text.__swrite
                0x00143ebc       0x54 /Users/spinal/devkitPro/devkitARM/bin/../lib/gcc/arm-none-eabi/4.9.2/../../../../arm-none-eabi/lib/armv6k/fpu/libg.a(lib_a-stdio.o)
                0x00143ebc                __swrite
 .text.__sseek  0x00143f10       0x2c /Users/spinal/devkitPro/devkitARM/bin/../lib/gcc/arm-none-eabi/4.9.2/../../../../arm-none-eabi/lib/armv6k/fpu/libg.a(lib_a-stdio.o)
                0x00143f10                __sseek
 .text.__sclose
                0x00143f3c        0x8 /Users/spinal/devkitPro/devkitARM/bin/../lib/gcc/arm-none-eabi/4.9.2/../../../../arm-none-eabi/lib/armv6k/fpu/libg.a(lib_a-stdio.o)
                0x00143f3c                __sclose
 .text.stpcpy   0x00143f44       0x80 /Users/spinal/devkitPro/devkitARM/bin/../lib/gcc/arm-none-eabi/4.9.2/../../../../arm-none-eabi/lib/armv6k/fpu/libg.a(lib_a-stpcpy.o)
                0x00143f44                stpcpy
 .text.strcasecmp
                0x00143fc4       0x68 /Users/spinal/devkitPro/devkitARM/bin/../lib/gcc/arm-none-eabi/4.9.2/../../../../arm-none-eabi/lib/armv6k/fpu/libg.a(lib_a-strcasecmp.o)
                0x00143fc4                strcasecmp
 .text.strchr   0x0014402c      0x16c /Users/spinal/devkitPro/devkitARM/bin/../lib/gcc/arm-none-eabi/4.9.2/../../../../arm-none-eabi/lib/armv6k/fpu/libg.a(lib_a-strchr.o)
                0x0014402c                strchr
 .text.strcpy   0x00144198       0xf0 /Users/spinal/devkitPro/devkitARM/bin/../lib/gcc/arm-none-eabi/4.9.2/../../../../arm-none-eabi/lib/armv6k/fpu/libg.a(lib_a-strcpy.o)
                0x00144198                strcpy
 .text.strlen   0x00144288       0x5c /Users/spinal/devkitPro/devkitARM/bin/../lib/gcc/arm-none-eabi/4.9.2/../../../../arm-none-eabi/lib/armv6k/fpu/libg.a(lib_a-strlen.o)
                0x00144288                strlen
 .text.strncat  0x001442e4       0xa4 /Users/spinal/devkitPro/devkitARM/bin/../lib/gcc/arm-none-eabi/4.9.2/../../../../arm-none-eabi/lib/armv6k/fpu/libg.a(lib_a-strncat.o)
                0x001442e4                strncat
 .text.strncmp  0x00144388      0x110 /Users/spinal/devkitPro/devkitARM/bin/../lib/gcc/arm-none-eabi/4.9.2/../../../../arm-none-eabi/lib/armv6k/fpu/libg.a(lib_a-strncmp.o)
                0x00144388                strncmp
 .text.strncpy  0x00144498       0xe0 /Users/spinal/devkitPro/devkitARM/bin/../lib/gcc/arm-none-eabi/4.9.2/../../../../arm-none-eabi/lib/armv6k/fpu/libg.a(lib_a-strncpy.o)
                0x00144498                strncpy
 .text._strtol_r
                0x00144578      0x1dc /Users/spinal/devkitPro/devkitARM/bin/../lib/gcc/arm-none-eabi/4.9.2/../../../../arm-none-eabi/lib/armv6k/fpu/libg.a(lib_a-strtol.o)
                0x00144578                _strtol_r
 .text.strtol   0x00144754       0x28 /Users/spinal/devkitPro/devkitARM/bin/../lib/gcc/arm-none-eabi/4.9.2/../../../../arm-none-eabi/lib/armv6k/fpu/libg.a(lib_a-strtol.o)
                0x00144754                strtol
 .text.get_arg  0x0014477c      0x860 /Users/spinal/devkitPro/devkitARM/bin/../lib/gcc/arm-none-eabi/4.9.2/../../../../arm-none-eabi/lib/armv6k/fpu/libg.a(lib_a-svfprintf.o)
 *fill*         0x00144fdc        0x4 
 .text._svfprintf_r
                0x00144fe0     0x4320 /Users/spinal/devkitPro/devkitARM/bin/../lib/gcc/arm-none-eabi/4.9.2/../../../../arm-none-eabi/lib/armv6k/fpu/libg.a(lib_a-svfprintf.o)
                0x00144fe0                _svfprintf_r
 .text.__ssvfscanf_r
                0x00149300     0x2aec /Users/spinal/devkitPro/devkitARM/bin/../lib/gcc/arm-none-eabi/4.9.2/../../../../arm-none-eabi/lib/armv6k/fpu/libg.a(lib_a-svfscanf.o)
                0x00149300                __ssvfscanf_r
 .text.stat     0x0014bdec       0x20 /Users/spinal/devkitPro/devkitARM/bin/../lib/gcc/arm-none-eabi/4.9.2/../../../../arm-none-eabi/lib/armv6k/fpu/libg.a(lib_a-sysstat.o)
                0x0014bdec                stat
 .text.write    0x0014be0c       0x28 /Users/spinal/devkitPro/devkitARM/bin/../lib/gcc/arm-none-eabi/4.9.2/../../../../arm-none-eabi/lib/armv6k/fpu/libg.a(lib_a-syswrite.o)
                0x0014be0c                write
 .text.get_arg  0x0014be34      0x860 /Users/spinal/devkitPro/devkitARM/bin/../lib/gcc/arm-none-eabi/4.9.2/../../../../arm-none-eabi/lib/armv6k/fpu/libg.a(lib_a-vfiprintf.o)
 .text.__sprint_r.part.0
                0x0014c694       0xa4 /Users/spinal/devkitPro/devkitARM/bin/../lib/gcc/arm-none-eabi/4.9.2/../../../../arm-none-eabi/lib/armv6k/fpu/libg.a(lib_a-vfiprintf.o)
 .text.__sprint_r
                0x0014c738       0x1c /Users/spinal/devkitPro/devkitARM/bin/../lib/gcc/arm-none-eabi/4.9.2/../../../../arm-none-eabi/lib/armv6k/fpu/libg.a(lib_a-vfiprintf.o)
                0x0014c738                __sprint_r
 .text._vfiprintf_r
                0x0014c754     0x3114 /Users/spinal/devkitPro/devkitARM/bin/../lib/gcc/arm-none-eabi/4.9.2/../../../../arm-none-eabi/lib/armv6k/fpu/libg.a(lib_a-vfiprintf.o)
                0x0014c754                _vfiprintf_r
 .text.vfiprintf
                0x0014f868       0x28 /Users/spinal/devkitPro/devkitARM/bin/../lib/gcc/arm-none-eabi/4.9.2/../../../../arm-none-eabi/lib/armv6k/fpu/libg.a(lib_a-vfiprintf.o)
                0x0014f868                vfiprintf
 .text.__sbprintf
                0x0014f890       0xa8 /Users/spinal/devkitPro/devkitARM/bin/../lib/gcc/arm-none-eabi/4.9.2/../../../../arm-none-eabi/lib/armv6k/fpu/libg.a(lib_a-vfiprintf.o)
 .text.get_arg  0x0014f938      0x860 /Users/spinal/devkitPro/devkitARM/bin/../lib/gcc/arm-none-eabi/4.9.2/../../../../arm-none-eabi/lib/armv6k/fpu/libg.a(lib_a-vfprintf.o)
 .text._vfprintf_r
                0x00150198     0x4408 /Users/spinal/devkitPro/devkitARM/bin/../lib/gcc/arm-none-eabi/4.9.2/../../../../arm-none-eabi/lib/armv6k/fpu/libg.a(lib_a-vfprintf.o)
                0x00150198                _vfprintf_r
 .text.vfprintf
                0x001545a0       0x28 /Users/spinal/devkitPro/devkitARM/bin/../lib/gcc/arm-none-eabi/4.9.2/../../../../arm-none-eabi/lib/armv6k/fpu/libg.a(lib_a-vfprintf.o)
                0x001545a0                vfprintf
 .text.__sbprintf
                0x001545c8       0xa8 /Users/spinal/devkitPro/devkitARM/bin/../lib/gcc/arm-none-eabi/4.9.2/../../../../arm-none-eabi/lib/armv6k/fpu/libg.a(lib_a-vfprintf.o)
 .text.__svfscanf_r
                0x00154670     0x2b5c /Users/spinal/devkitPro/devkitARM/bin/../lib/gcc/arm-none-eabi/4.9.2/../../../../arm-none-eabi/lib/armv6k/fpu/libg.a(lib_a-vfscanf.o)
                0x00154670                __svfscanf_r
 .text.vfscanf  0x001571cc       0x44 /Users/spinal/devkitPro/devkitARM/bin/../lib/gcc/arm-none-eabi/4.9.2/../../../../arm-none-eabi/lib/armv6k/fpu/libg.a(lib_a-vfscanf.o)
                0x001571cc                vfscanf
 .text.__svfscanf
                0x00157210       0x28 /Users/spinal/devkitPro/devkitARM/bin/../lib/gcc/arm-none-eabi/4.9.2/../../../../arm-none-eabi/lib/armv6k/fpu/libg.a(lib_a-vfscanf.o)
                0x00157210                __svfscanf
 .text._vfscanf_r
                0x00157238       0x38 /Users/spinal/devkitPro/devkitARM/bin/../lib/gcc/arm-none-eabi/4.9.2/../../../../arm-none-eabi/lib/armv6k/fpu/libg.a(lib_a-vfscanf.o)
                0x00157238                _vfscanf_r
 .text.__swbuf_r
                0x00157270      0x124 /Users/spinal/devkitPro/devkitARM/bin/../lib/gcc/arm-none-eabi/4.9.2/../../../../arm-none-eabi/lib/armv6k/fpu/libg.a(lib_a-wbuf.o)
                0x00157270                __swbuf_r
 .text.__swbuf  0x00157394       0x20 /Users/spinal/devkitPro/devkitARM/bin/../lib/gcc/arm-none-eabi/4.9.2/../../../../arm-none-eabi/lib/armv6k/fpu/libg.a(lib_a-wbuf.o)
                0x00157394                __swbuf
 .text._wcrtomb_r
                0x001573b4       0x8c /Users/spinal/devkitPro/devkitARM/bin/../lib/gcc/arm-none-eabi/4.9.2/../../../../arm-none-eabi/lib/armv6k/fpu/libg.a(lib_a-wcrtomb.o)
                0x001573b4                _wcrtomb_r
 .text.wcrtomb  0x00157440       0x94 /Users/spinal/devkitPro/devkitARM/bin/../lib/gcc/arm-none-eabi/4.9.2/../../../../arm-none-eabi/lib/armv6k/fpu/libg.a(lib_a-wcrtomb.o)
                0x00157440                wcrtomb
 .text._wcsrtombs_r
                0x001574d4       0x20 /Users/spinal/devkitPro/devkitARM/bin/../lib/gcc/arm-none-eabi/4.9.2/../../../../arm-none-eabi/lib/armv6k/fpu/libg.a(lib_a-wcsrtombs.o)
                0x001574d4                _wcsrtombs_r
 .text.wcsrtombs
                0x001574f4       0x3c /Users/spinal/devkitPro/devkitARM/bin/../lib/gcc/arm-none-eabi/4.9.2/../../../../arm-none-eabi/lib/armv6k/fpu/libg.a(lib_a-wcsrtombs.o)
                0x001574f4                wcsrtombs
 .text.__utf8_wctomb
                0x00157530      0x114 /Users/spinal/devkitPro/devkitARM/bin/../lib/gcc/arm-none-eabi/4.9.2/../../../../arm-none-eabi/lib/armv6k/fpu/libg.a(lib_a-wctomb_r.o)
                0x00157530                __utf8_wctomb
 .text._wctomb_r
                0x00157644       0x48 /Users/spinal/devkitPro/devkitARM/bin/../lib/gcc/arm-none-eabi/4.9.2/../../../../arm-none-eabi/lib/armv6k/fpu/libg.a(lib_a-wctomb_r.o)
                0x00157644                _wctomb_r
 .text.__ascii_wctomb
                0x0015768c       0x28 /Users/spinal/devkitPro/devkitARM/bin/../lib/gcc/arm-none-eabi/4.9.2/../../../../arm-none-eabi/lib/armv6k/fpu/libg.a(lib_a-wctomb_r.o)
                0x0015768c                __ascii_wctomb
 .text.__sjis_wctomb
                0x001576b4       0x84 /Users/spinal/devkitPro/devkitARM/bin/../lib/gcc/arm-none-eabi/4.9.2/../../../../arm-none-eabi/lib/armv6k/fpu/libg.a(lib_a-wctomb_r.o)
                0x001576b4                __sjis_wctomb
 .text.__eucjp_wctomb
                0x00157738       0xc8 /Users/spinal/devkitPro/devkitARM/bin/../lib/gcc/arm-none-eabi/4.9.2/../../../../arm-none-eabi/lib/armv6k/fpu/libg.a(lib_a-wctomb_r.o)
                0x00157738                __eucjp_wctomb
 .text.__jis_wctomb
                0x00157800       0xd4 /Users/spinal/devkitPro/devkitARM/bin/../lib/gcc/arm-none-eabi/4.9.2/../../../../arm-none-eabi/lib/armv6k/fpu/libg.a(lib_a-wctomb_r.o)
                0x00157800                __jis_wctomb
 .text.__swsetup_r
                0x001578d4      0x14c /Users/spinal/devkitPro/devkitARM/bin/../lib/gcc/arm-none-eabi/4.9.2/../../../../arm-none-eabi/lib/armv6k/fpu/libg.a(lib_a-wsetup.o)
                0x001578d4                __swsetup_r
 .text.__set_ctype
                0x00157a20       0x18 /Users/spinal/devkitPro/devkitARM/bin/../lib/gcc/arm-none-eabi/4.9.2/../../../../arm-none-eabi/lib/armv6k/fpu/libg.a(lib_a-ctype_.o)
                0x00157a20                __set_ctype
 .text.quorem   0x00157a38      0x1c0 /Users/spinal/devkitPro/devkitARM/bin/../lib/gcc/arm-none-eabi/4.9.2/../../../../arm-none-eabi/lib/armv6k/fpu/libg.a(lib_a-dtoa.o)
 .text._dtoa_r  0x00157bf8     0x12e0 /Users/spinal/devkitPro/devkitARM/bin/../lib/gcc/arm-none-eabi/4.9.2/../../../../arm-none-eabi/lib/armv6k/fpu/libg.a(lib_a-dtoa.o)
                0x00157bf8                _dtoa_r
 .text.__sflags
                0x00158ed8       0xb0 /Users/spinal/devkitPro/devkitARM/bin/../lib/gcc/arm-none-eabi/4.9.2/../../../../arm-none-eabi/lib/armv6k/fpu/libg.a(lib_a-flags.o)
                0x00158ed8                __sflags
 .text.__fputwc
                0x00158f88      0x124 /Users/spinal/devkitPro/devkitARM/bin/../lib/gcc/arm-none-eabi/4.9.2/../../../../arm-none-eabi/lib/armv6k/fpu/libg.a(lib_a-fputwc.o)
                0x00158f88                __fputwc
 .text._fputwc_r
                0x001590ac       0xa8 /Users/spinal/devkitPro/devkitARM/bin/../lib/gcc/arm-none-eabi/4.9.2/../../../../arm-none-eabi/lib/armv6k/fpu/libg.a(lib_a-fputwc.o)
                0x001590ac                _fputwc_r
 .text.fputwc   0x00159154       0x3c /Users/spinal/devkitPro/devkitARM/bin/../lib/gcc/arm-none-eabi/4.9.2/../../../../arm-none-eabi/lib/armv6k/fpu/libg.a(lib_a-fputwc.o)
                0x00159154                fputwc
 .text.iswspace
                0x00159190       0x74 /Users/spinal/devkitPro/devkitARM/bin/../lib/gcc/arm-none-eabi/4.9.2/../../../../arm-none-eabi/lib/armv6k/fpu/libg.a(lib_a-iswspace.o)
                0x00159190                iswspace
 .text.__jp2uc  0x00159204      0x204 /Users/spinal/devkitPro/devkitARM/bin/../lib/gcc/arm-none-eabi/4.9.2/../../../../arm-none-eabi/lib/armv6k/fpu/libg.a(lib_a-jp2uc.o)
 .text._jp2uc   0x00159408       0x84 /Users/spinal/devkitPro/devkitARM/bin/../lib/gcc/arm-none-eabi/4.9.2/../../../../arm-none-eabi/lib/armv6k/fpu/libg.a(lib_a-jp2uc.o)
                0x00159408                _jp2uc
 .text.__get_locale_env
                0x0015948c       0x8c /Users/spinal/devkitPro/devkitARM/bin/../lib/gcc/arm-none-eabi/4.9.2/../../../../arm-none-eabi/lib/armv6k/fpu/libg.a(lib_a-locale.o)
 .text.loadlocale
                0x00159518      0x8a4 /Users/spinal/devkitPro/devkitARM/bin/../lib/gcc/arm-none-eabi/4.9.2/../../../../arm-none-eabi/lib/armv6k/fpu/libg.a(lib_a-locale.o)
 .text.currentlocale
                0x00159dbc       0x88 /Users/spinal/devkitPro/devkitARM/bin/../lib/gcc/arm-none-eabi/4.9.2/../../../../arm-none-eabi/lib/armv6k/fpu/libg.a(lib_a-locale.o)
 .text._setlocale_r
                0x00159e44      0x300 /Users/spinal/devkitPro/devkitARM/bin/../lib/gcc/arm-none-eabi/4.9.2/../../../../arm-none-eabi/lib/armv6k/fpu/libg.a(lib_a-locale.o)
                0x00159e44                _setlocale_r
 .text.__locale_charset
                0x0015a144        0xc /Users/spinal/devkitPro/devkitARM/bin/../lib/gcc/arm-none-eabi/4.9.2/../../../../arm-none-eabi/lib/armv6k/fpu/libg.a(lib_a-locale.o)
                0x0015a144                __locale_charset
 .text.__locale_mb_cur_max
                0x0015a150       0x10 /Users/spinal/devkitPro/devkitARM/bin/../lib/gcc/arm-none-eabi/4.9.2/../../../../arm-none-eabi/lib/armv6k/fpu/libg.a(lib_a-locale.o)
                0x0015a150                __locale_mb_cur_max
 .text.__locale_msgcharset
                0x0015a160        0xc /Users/spinal/devkitPro/devkitARM/bin/../lib/gcc/arm-none-eabi/4.9.2/../../../../arm-none-eabi/lib/armv6k/fpu/libg.a(lib_a-locale.o)
                0x0015a160                __locale_msgcharset
 .text.__locale_cjk_lang
                0x0015a16c       0x10 /Users/spinal/devkitPro/devkitARM/bin/../lib/gcc/arm-none-eabi/4.9.2/../../../../arm-none-eabi/lib/armv6k/fpu/libg.a(lib_a-locale.o)
                0x0015a16c                __locale_cjk_lang
 .text._localeconv_r
                0x0015a17c        0xc /Users/spinal/devkitPro/devkitARM/bin/../lib/gcc/arm-none-eabi/4.9.2/../../../../arm-none-eabi/lib/armv6k/fpu/libg.a(lib_a-locale.o)
                0x0015a17c                _localeconv_r
 .text.setlocale
                0x0015a188       0x20 /Users/spinal/devkitPro/devkitARM/bin/../lib/gcc/arm-none-eabi/4.9.2/../../../../arm-none-eabi/lib/armv6k/fpu/libg.a(lib_a-locale.o)
                0x0015a188                setlocale
 .text.localeconv
                0x0015a1a8       0x14 /Users/spinal/devkitPro/devkitARM/bin/../lib/gcc/arm-none-eabi/4.9.2/../../../../arm-none-eabi/lib/armv6k/fpu/libg.a(lib_a-locale.o)
                0x0015a1a8                localeconv
 .text._mbrtowc_r
                0x0015a1bc       0x98 /Users/spinal/devkitPro/devkitARM/bin/../lib/gcc/arm-none-eabi/4.9.2/../../../../arm-none-eabi/lib/armv6k/fpu/libg.a(lib_a-mbrtowc.o)
                0x0015a1bc                _mbrtowc_r
 .text.mbrtowc  0x0015a254       0x9c /Users/spinal/devkitPro/devkitARM/bin/../lib/gcc/arm-none-eabi/4.9.2/../../../../arm-none-eabi/lib/armv6k/fpu/libg.a(lib_a-mbrtowc.o)
                0x0015a254                mbrtowc
 .text.__utf8_mbtowc
                0x0015a2f0      0x2fc /Users/spinal/devkitPro/devkitARM/bin/../lib/gcc/arm-none-eabi/4.9.2/../../../../arm-none-eabi/lib/armv6k/fpu/libg.a(lib_a-mbtowc_r.o)
                0x0015a2f0                __utf8_mbtowc
 .text._mbtowc_r
                0x0015a5ec       0x4c /Users/spinal/devkitPro/devkitARM/bin/../lib/gcc/arm-none-eabi/4.9.2/../../../../arm-none-eabi/lib/armv6k/fpu/libg.a(lib_a-mbtowc_r.o)
                0x0015a5ec                _mbtowc_r
 .text.__ascii_mbtowc
                0x0015a638       0x4c /Users/spinal/devkitPro/devkitARM/bin/../lib/gcc/arm-none-eabi/4.9.2/../../../../arm-none-eabi/lib/armv6k/fpu/libg.a(lib_a-mbtowc_r.o)
                0x0015a638                __ascii_mbtowc
 .text.__sjis_mbtowc
                0x0015a684       0xd4 /Users/spinal/devkitPro/devkitARM/bin/../lib/gcc/arm-none-eabi/4.9.2/../../../../arm-none-eabi/lib/armv6k/fpu/libg.a(lib_a-mbtowc_r.o)
                0x0015a684                __sjis_mbtowc
 .text.__eucjp_mbtowc
                0x0015a758      0x140 /Users/spinal/devkitPro/devkitARM/bin/../lib/gcc/arm-none-eabi/4.9.2/../../../../arm-none-eabi/lib/armv6k/fpu/libg.a(lib_a-mbtowc_r.o)
                0x0015a758                __eucjp_mbtowc
 .text.__jis_mbtowc
                0x0015a898      0x1a8 /Users/spinal/devkitPro/devkitARM/bin/../lib/gcc/arm-none-eabi/4.9.2/../../../../arm-none-eabi/lib/armv6k/fpu/libg.a(lib_a-mbtowc_r.o)
                0x0015a898                __jis_mbtowc
 .text._Balloc  0x0015aa40       0x8c /Users/spinal/devkitPro/devkitARM/bin/../lib/gcc/arm-none-eabi/4.9.2/../../../../arm-none-eabi/lib/armv6k/fpu/libg.a(lib_a-mprec.o)
                0x0015aa40                _Balloc
 .text._Bfree   0x0015aacc       0x1c /Users/spinal/devkitPro/devkitARM/bin/../lib/gcc/arm-none-eabi/4.9.2/../../../../arm-none-eabi/lib/armv6k/fpu/libg.a(lib_a-mprec.o)
                0x0015aacc                _Bfree
 .text.__multadd
                0x0015aae8       0xd0 /Users/spinal/devkitPro/devkitARM/bin/../lib/gcc/arm-none-eabi/4.9.2/../../../../arm-none-eabi/lib/armv6k/fpu/libg.a(lib_a-mprec.o)
                0x0015aae8                __multadd
 .text.__s2b    0x0015abb8       0xe4 /Users/spinal/devkitPro/devkitARM/bin/../lib/gcc/arm-none-eabi/4.9.2/../../../../arm-none-eabi/lib/armv6k/fpu/libg.a(lib_a-mprec.o)
                0x0015abb8                __s2b
 .text.__hi0bits
                0x0015ac9c       0x5c /Users/spinal/devkitPro/devkitARM/bin/../lib/gcc/arm-none-eabi/4.9.2/../../../../arm-none-eabi/lib/armv6k/fpu/libg.a(lib_a-mprec.o)
                0x0015ac9c                __hi0bits
 .text.__lo0bits
                0x0015acf8       0x98 /Users/spinal/devkitPro/devkitARM/bin/../lib/gcc/arm-none-eabi/4.9.2/../../../../arm-none-eabi/lib/armv6k/fpu/libg.a(lib_a-mprec.o)
                0x0015acf8                __lo0bits
 .text.__i2b    0x0015ad90       0x20 /Users/spinal/devkitPro/devkitARM/bin/../lib/gcc/arm-none-eabi/4.9.2/../../../../arm-none-eabi/lib/armv6k/fpu/libg.a(lib_a-mprec.o)
                0x0015ad90                __i2b
 .text.__multiply
                0x0015adb0      0x1dc /Users/spinal/devkitPro/devkitARM/bin/../lib/gcc/arm-none-eabi/4.9.2/../../../../arm-none-eabi/lib/armv6k/fpu/libg.a(lib_a-mprec.o)
                0x0015adb0                __multiply
 .text.__pow5mult
                0x0015af8c      0x100 /Users/spinal/devkitPro/devkitARM/bin/../lib/gcc/arm-none-eabi/4.9.2/../../../../arm-none-eabi/lib/armv6k/fpu/libg.a(lib_a-mprec.o)
                0x0015af8c                __pow5mult
 .text.__lshift
                0x0015b08c       0xf4 /Users/spinal/devkitPro/devkitARM/bin/../lib/gcc/arm-none-eabi/4.9.2/../../../../arm-none-eabi/lib/armv6k/fpu/libg.a(lib_a-mprec.o)
                0x0015b08c                __lshift
 .text.__mcmp   0x0015b180       0x64 /Users/spinal/devkitPro/devkitARM/bin/../lib/gcc/arm-none-eabi/4.9.2/../../../../arm-none-eabi/lib/armv6k/fpu/libg.a(lib_a-mprec.o)
                0x0015b180                __mcmp
 .text.__mdiff  0x0015b1e4      0x13c /Users/spinal/devkitPro/devkitARM/bin/../lib/gcc/arm-none-eabi/4.9.2/../../../../arm-none-eabi/lib/armv6k/fpu/libg.a(lib_a-mprec.o)
                0x0015b1e4                __mdiff
 .text.__ulp    0x0015b320       0x74 /Users/spinal/devkitPro/devkitARM/bin/../lib/gcc/arm-none-eabi/4.9.2/../../../../arm-none-eabi/lib/armv6k/fpu/libg.a(lib_a-mprec.o)
                0x0015b320                __ulp
 .text.__b2d    0x0015b394       0xe4 /Users/spinal/devkitPro/devkitARM/bin/../lib/gcc/arm-none-eabi/4.9.2/../../../../arm-none-eabi/lib/armv6k/fpu/libg.a(lib_a-mprec.o)
                0x0015b394                __b2d
 .text.__d2b    0x0015b478      0x104 /Users/spinal/devkitPro/devkitARM/bin/../lib/gcc/arm-none-eabi/4.9.2/../../../../arm-none-eabi/lib/armv6k/fpu/libg.a(lib_a-mprec.o)
                0x0015b478                __d2b
 .text.__ratio  0x0015b57c       0x7c /Users/spinal/devkitPro/devkitARM/bin/../lib/gcc/arm-none-eabi/4.9.2/../../../../arm-none-eabi/lib/armv6k/fpu/libg.a(lib_a-mprec.o)
                0x0015b57c                __ratio
 .text._mprec_log10
                0x0015b5f8       0x48 /Users/spinal/devkitPro/devkitARM/bin/../lib/gcc/arm-none-eabi/4.9.2/../../../../arm-none-eabi/lib/armv6k/fpu/libg.a(lib_a-mprec.o)
                0x0015b5f8                _mprec_log10
 .text.__copybits
                0x0015b640       0x6c /Users/spinal/devkitPro/devkitARM/bin/../lib/gcc/arm-none-eabi/4.9.2/../../../../arm-none-eabi/lib/armv6k/fpu/libg.a(lib_a-mprec.o)
                0x0015b640                __copybits
 .text.__any_on
                0x0015b6ac       0x80 /Users/spinal/devkitPro/devkitARM/bin/../lib/gcc/arm-none-eabi/4.9.2/../../../../arm-none-eabi/lib/armv6k/fpu/libg.a(lib_a-mprec.o)
                0x0015b6ac                __any_on
 .text.__fpclassifyd
                0x0015b72c       0x74 /Users/spinal/devkitPro/devkitARM/bin/../lib/gcc/arm-none-eabi/4.9.2/../../../../arm-none-eabi/lib/armv6k/fpu/libg.a(lib_a-s_fpclassify.o)
                0x0015b72c                __fpclassifyd
 .text.frexp    0x0015b7a0       0x98 /Users/spinal/devkitPro/devkitARM/bin/../lib/gcc/arm-none-eabi/4.9.2/../../../../arm-none-eabi/lib/armv6k/fpu/libg.a(lib_a-s_frexp.o)
                0x0015b7a0                frexp
 .text.__sccl   0x0015b838       0xd8 /Users/spinal/devkitPro/devkitARM/bin/../lib/gcc/arm-none-eabi/4.9.2/../../../../arm-none-eabi/lib/armv6k/fpu/libg.a(lib_a-sccl.o)
                0x0015b838                __sccl
 .text.nanf     0x0015b910        0xc /Users/spinal/devkitPro/devkitARM/bin/../lib/gcc/arm-none-eabi/4.9.2/../../../../arm-none-eabi/lib/armv6k/fpu/libg.a(lib_a-sf_nan.o)
                0x0015b910                nanf
 .text.stpncpy  0x0015b91c      0x108 /Users/spinal/devkitPro/devkitARM/bin/../lib/gcc/arm-none-eabi/4.9.2/../../../../arm-none-eabi/lib/armv6k/fpu/libg.a(lib_a-stpncpy.o)
                0x0015b91c                stpncpy
 .text.strcat   0x0015ba24       0x80 /Users/spinal/devkitPro/devkitARM/bin/../lib/gcc/arm-none-eabi/4.9.2/../../../../arm-none-eabi/lib/armv6k/fpu/libg.a(lib_a-strcat.o)
                0x0015ba24                strcat
 .text.strlcpy  0x0015baa4       0x48 /Users/spinal/devkitPro/devkitARM/bin/../lib/gcc/arm-none-eabi/4.9.2/../../../../arm-none-eabi/lib/armv6k/fpu/libg.a(lib_a-strlcpy.o)
                0x0015baa4                strlcpy
 .text.strncasecmp
                0x0015baec       0x8c /Users/spinal/devkitPro/devkitARM/bin/../lib/gcc/arm-none-eabi/4.9.2/../../../../arm-none-eabi/lib/armv6k/fpu/libg.a(lib_a-strncasecmp.o)
                0x0015baec                strncasecmp
 .text.unlikely.sulp
                0x0015bb78       0x58 /Users/spinal/devkitPro/devkitARM/bin/../lib/gcc/arm-none-eabi/4.9.2/../../../../arm-none-eabi/lib/armv6k/fpu/libg.a(lib_a-strtod.o)
 .text._strtod_r
                0x0015bbd0     0x13f0 /Users/spinal/devkitPro/devkitARM/bin/../lib/gcc/arm-none-eabi/4.9.2/../../../../arm-none-eabi/lib/armv6k/fpu/libg.a(lib_a-strtod.o)
                0x0015bbd0                _strtod_r
 .text.strtod   0x0015cfc0       0x20 /Users/spinal/devkitPro/devkitARM/bin/../lib/gcc/arm-none-eabi/4.9.2/../../../../arm-none-eabi/lib/armv6k/fpu/libg.a(lib_a-strtod.o)
                0x0015cfc0                strtod
 .text.strtof   0x0015cfe0       0x48 /Users/spinal/devkitPro/devkitARM/bin/../lib/gcc/arm-none-eabi/4.9.2/../../../../arm-none-eabi/lib/armv6k/fpu/libg.a(lib_a-strtod.o)
                0x0015cfe0                strtof
 .text._strtoll_r
                0x0015d028      0x2a0 /Users/spinal/devkitPro/devkitARM/bin/../lib/gcc/arm-none-eabi/4.9.2/../../../../arm-none-eabi/lib/armv6k/fpu/libg.a(lib_a-strtoll_r.o)
                0x0015d028                _strtoll_r
 .text._strtoul_r
                0x0015d2c8      0x1cc /Users/spinal/devkitPro/devkitARM/bin/../lib/gcc/arm-none-eabi/4.9.2/../../../../arm-none-eabi/lib/armv6k/fpu/libg.a(lib_a-strtoul.o)
                0x0015d2c8                _strtoul_r
 .text.strtoul  0x0015d494       0x28 /Users/spinal/devkitPro/devkitARM/bin/../lib/gcc/arm-none-eabi/4.9.2/../../../../arm-none-eabi/lib/armv6k/fpu/libg.a(lib_a-strtoul.o)
                0x0015d494                strtoul
 .text._strtoull_r
                0x0015d4bc      0x260 /Users/spinal/devkitPro/devkitARM/bin/../lib/gcc/arm-none-eabi/4.9.2/../../../../arm-none-eabi/lib/armv6k/fpu/libg.a(lib_a-strtoull_r.o)
                0x0015d4bc                _strtoull_r
 .text.get_arg  0x0015d71c      0x860 /Users/spinal/devkitPro/devkitARM/bin/../lib/gcc/arm-none-eabi/4.9.2/../../../../arm-none-eabi/lib/armv6k/fpu/libg.a(lib_a-svfiprintf.o)
 .text.__ssprint_r
                0x0015df7c      0x1a8 /Users/spinal/devkitPro/devkitARM/bin/../lib/gcc/arm-none-eabi/4.9.2/../../../../arm-none-eabi/lib/armv6k/fpu/libg.a(lib_a-svfiprintf.o)
                0x0015df7c                __ssprint_r
 .text._svfiprintf_r
                0x0015e124     0x2fdc /Users/spinal/devkitPro/devkitARM/bin/../lib/gcc/arm-none-eabi/4.9.2/../../../../arm-none-eabi/lib/armv6k/fpu/libg.a(lib_a-svfiprintf.o)
                0x0015e124                _svfiprintf_r
 .text._sungetc_r
                0x00161100       0xf0 /Users/spinal/devkitPro/devkitARM/bin/../lib/gcc/arm-none-eabi/4.9.2/../../../../arm-none-eabi/lib/armv6k/fpu/libg.a(lib_a-svfiscanf.o)
                0x00161100                _sungetc_r
 .text.__ssrefill_r
                0x001611f0       0x6c /Users/spinal/devkitPro/devkitARM/bin/../lib/gcc/arm-none-eabi/4.9.2/../../../../arm-none-eabi/lib/armv6k/fpu/libg.a(lib_a-svfiscanf.o)
                0x001611f0                __ssrefill_r
 .text._sfread_r
                0x0016125c       0xc0 /Users/spinal/devkitPro/devkitARM/bin/../lib/gcc/arm-none-eabi/4.9.2/../../../../arm-none-eabi/lib/armv6k/fpu/libg.a(lib_a-svfiscanf.o)
                0x0016125c                _sfread_r
 .text.__ssvfiscanf_r
                0x0016131c     0x213c /Users/spinal/devkitPro/devkitARM/bin/../lib/gcc/arm-none-eabi/4.9.2/../../../../arm-none-eabi/lib/armv6k/fpu/libg.a(lib_a-svfiscanf.o)
                0x0016131c                __ssvfiscanf_r
 .text.__submore
                0x00163458       0xa8 /Users/spinal/devkitPro/devkitARM/bin/../lib/gcc/arm-none-eabi/4.9.2/../../../../arm-none-eabi/lib/armv6k/fpu/libg.a(lib_a-ungetc.o)
                0x00163458                __submore
 .text._ungetc_r
                0x00163500      0x238 /Users/spinal/devkitPro/devkitARM/bin/../lib/gcc/arm-none-eabi/4.9.2/../../../../arm-none-eabi/lib/armv6k/fpu/libg.a(lib_a-ungetc.o)
                0x00163500                _ungetc_r
 .text.ungetc   0x00163738       0x20 /Users/spinal/devkitPro/devkitARM/bin/../lib/gcc/arm-none-eabi/4.9.2/../../../../arm-none-eabi/lib/armv6k/fpu/libg.a(lib_a-ungetc.o)
                0x00163738                ungetc
 .text._wcsnrtombs_r
                0x00163758      0x184 /Users/spinal/devkitPro/devkitARM/bin/../lib/gcc/arm-none-eabi/4.9.2/../../../../arm-none-eabi/lib/armv6k/fpu/libg.a(lib_a-wcsnrtombs.o)
                0x00163758                _wcsnrtombs_r
 .text.wcsnrtombs
                0x001638dc       0x40 /Users/spinal/devkitPro/devkitARM/bin/../lib/gcc/arm-none-eabi/4.9.2/../../../../arm-none-eabi/lib/armv6k/fpu/libg.a(lib_a-wcsnrtombs.o)
                0x001638dc                wcsnrtombs
 .text._calloc_r
                0x0016391c       0x94 /Users/spinal/devkitPro/devkitARM/bin/../lib/gcc/arm-none-eabi/4.9.2/../../../../arm-none-eabi/lib/armv6k/fpu/libg.a(lib_a-callocr.o)
                0x0016391c                _calloc_r
 .text.rshift   0x001639b0       0xec /Users/spinal/devkitPro/devkitARM/bin/../lib/gcc/arm-none-eabi/4.9.2/../../../../arm-none-eabi/lib/armv6k/fpu/libg.a(lib_a-gdtoa-gethex.o)
 .text.__gethex
                0x00163a9c      0x7e8 /Users/spinal/devkitPro/devkitARM/bin/../lib/gcc/arm-none-eabi/4.9.2/../../../../arm-none-eabi/lib/armv6k/fpu/libg.a(lib_a-gdtoa-gethex.o)
                0x00163a9c                __gethex
 .text.__hexnan
                0x00164284      0x260 /Users/spinal/devkitPro/devkitARM/bin/../lib/gcc/arm-none-eabi/4.9.2/../../../../arm-none-eabi/lib/armv6k/fpu/libg.a(lib_a-gdtoa-hexnan.o)
                0x00164284                __hexnan
 .text._findenv_r
                0x001644e4       0xc8 /Users/spinal/devkitPro/devkitARM/bin/../lib/gcc/arm-none-eabi/4.9.2/../../../../arm-none-eabi/lib/armv6k/fpu/libg.a(lib_a-getenv_r.o)
                0x001644e4                _findenv_r
 .text._getenv_r
                0x001645ac       0x18 /Users/spinal/devkitPro/devkitARM/bin/../lib/gcc/arm-none-eabi/4.9.2/../../../../arm-none-eabi/lib/armv6k/fpu/libg.a(lib_a-getenv_r.o)
                0x001645ac                _getenv_r
 .text.__env_lock
                0x001645c4        0x4 /Users/spinal/devkitPro/devkitARM/bin/../lib/gcc/arm-none-eabi/4.9.2/../../../../arm-none-eabi/lib/armv6k/fpu/libg.a(lib_a-envlock.o)
                0x001645c4                __env_lock
 .text.__env_unlock
                0x001645c8        0x4 /Users/spinal/devkitPro/devkitARM/bin/../lib/gcc/arm-none-eabi/4.9.2/../../../../arm-none-eabi/lib/armv6k/fpu/libg.a(lib_a-envlock.o)
                0x001645c8                __env_unlock
 .text.__errno  0x001645cc        0xc /Users/spinal/devkitPro/devkitARM/bin/../lib/gcc/arm-none-eabi/4.9.2/../../../../arm-none-eabi/lib/armv6k/fpu/libg.a(lib_a-errno.o)
                0x001645cc                __errno
 .text.strnlen  0x001645d8       0x5c /Users/spinal/devkitPro/devkitARM/bin/../lib/gcc/arm-none-eabi/4.9.2/../../../../arm-none-eabi/lib/armv6k/fpu/libg.a(lib_a-strnlen.o)
                0x001645d8                strnlen
 .text.strrchr  0x00164634       0x44 /Users/spinal/devkitPro/devkitARM/bin/../lib/gcc/arm-none-eabi/4.9.2/../../../../arm-none-eabi/lib/armv6k/fpu/libg.a(lib_a-strrchr.o)
                0x00164634                strrchr
 *(.glue_7)
 .glue_7        0x00164678        0x0 linker stubs
 *(.glue_7t)
 .glue_7t       0x00164678        0x0 linker stubs
 *(.stub)
 *(.gnu.warning)
 *(.gnu.linkonce.t*)
                0x00164678                . = ALIGN (0x4)
 *(.fini)
 .fini          0x00164678        0xc /Users/spinal/devkitPro/devkitARM/bin/../lib/gcc/arm-none-eabi/4.9.2/armv6k/fpu/crti.o
                0x00164678                _fini
 .fini          0x00164684        0xc /Users/spinal/devkitPro/devkitARM/bin/../lib/gcc/arm-none-eabi/4.9.2/armv6k/fpu/crtn.o
                0x00164690                . = ALIGN (0x4)

.vfp11_veneer   0x00164690        0x0
 .vfp11_veneer  0x00164690        0x0 linker stubs

.v4_bx          0x00164690        0x0
 .v4_bx         0x00164690        0x0 linker stubs

.iplt           0x00164690        0x0
 .iplt          0x00164690        0x0 /Users/spinal/devkitPro/devkitARM/bin/../lib/gcc/arm-none-eabi/4.9.2/../../../../arm-none-eabi/lib/armv6k/fpu/3dsx_crt0.o

.rodata         0x00165000    0x96ea8
 *(.rodata)
 .rodata        0x00165000     0x4004 1541.ROM.bin.o
                0x00165000                _1541_ROM_bin
                0x00169000                _1541_ROM_bin_size
                0x00169000                _1541_ROM_bin_end
 .rodata        0x00169004     0x2004 BASIC.ROM.bin.o
                0x00169004                BASIC_ROM_bin
                0x0016b004                BASIC_ROM_bin_end
                0x0016b004                BASIC_ROM_bin_size
 .rodata        0x0016b008    0x70804 C64_Keyboard.bin.o
                0x0016b008                C64_Keyboard_bin
                0x001db808                C64_Keyboard_bin_size
                0x001db808                C64_Keyboard_bin_end
 .rodata        0x001db80c     0x1004 CHAR.ROM.bin.o
                0x001db80c                CHAR_ROM_bin
                0x001dc80c                CHAR_ROM_bin_end
                0x001dc80c                CHAR_ROM_bin_size
 .rodata        0x001dc810     0x2004 KERNAL.ROM.bin.o
                0x001dc810                KERNAL_ROM_bin
                0x001de810                KERNAL_ROM_bin_end
                0x001de810                KERNAL_ROM_bin_size
 .rodata        0x001de814     0x6004 myfont.bin.o
                0x001de814                myfont_bin
                0x001e4814                myfont_bin_size
                0x001e4814                myfont_bin_end
 .rodata        0x001e4818     0x6004 myfont1.bin.o
                0x001e4818                myfont1_bin
                0x001ea818                myfont1_bin_end
                0x001ea818                myfont1_bin_size
 *fill*         0x001ea81c        0x4 
 .rodata        0x001ea820      0x220 1541d64.o
                0x001ea9d8                vtable for ImageDrive
 .rodata        0x001eaa40      0x140 1541job.o
 .rodata        0x001eab80       0xb8 1541t64.o
                0x001eab90                vtable for ArchDrive
 .rodata        0x001eac38       0x20 CIA.o
                0x001eac38                vtable for MOS6526_1
                0x001eac48                vtable for MOS6526_2
 .rodata        0x001eac58       0x5c CPUC64.o
 .rodata        0x001eacb4      0x200 CPU_common.o
                0x001eacb4                OpTab
                0x001eadb4                ModeTab
 .rodata        0x001eaeb4       0x30 Display.o
 *fill*         0x001eaee4        0x4 
 .rodata        0x001eaee8       0xe0 IEC.o
                0x001eaf60                vtable for Drive
 .rodata        0x001eafc8      0x300 SAM.o
 .rodata        0x001eb2c8      0x988 SID.o
                0x001eb2c8                vtable for DigitalRenderer
                0x001eb2f0                DigitalRenderer::EGTable
                0x001eb330                DigitalRenderer::SampleTab
                0x001eb350                DigitalRenderer::EGDRShift
                0x001eb450                DigitalRenderer::TriSawTable
                0x001eb650                DigitalRenderer::TriRectTable
                0x001eb850                DigitalRenderer::SawRectTable
                0x001eba50                DigitalRenderer::TriSawRectTable
 .rodata        0x001ebc50     0x9000 main.o
 .rodata        0x001f4c50       0x14 /Users/spinal/devkitPro/libctru/lib/libctru.a(gfx.o)
 .rodata        0x001f4c64        0xc /Users/spinal/devkitPro/libctru/lib/libctru.a(apt.o)
 .rodata        0x001f4c70       0x2c /Users/spinal/devkitPro/libctru/lib/libctru.a(os.o)
 .rodata        0x001f4c9c       0x30 /Users/spinal/devkitPro/libctru/lib/libctru.a(sdmc_dev.o)
 .rodata        0x001f4ccc      0x738 /Users/spinal/devkitPro/devkitARM/bin/../lib/gcc/arm-none-eabi/4.9.2/../../../../arm-none-eabi/lib/armv6k/fpu/libstdc++.a(cp-demangle.o)
 .rodata        0x001f5404       0x68 /Users/spinal/devkitPro/devkitARM/bin/../lib/gcc/arm-none-eabi/4.9.2/../../../../arm-none-eabi/lib/armv6k/fpu/libsysbase.a(iosupport.o)
                0x001f5404                dotab_stdnull
 .rodata        0x001f546c        0xc /Users/spinal/devkitPro/devkitARM/bin/../lib/gcc/arm-none-eabi/4.9.2/../../../../arm-none-eabi/lib/armv6k/fpu/libsysbase.a(chdir.o)
                0x001f546c                DIRECTORY_PARENT
                0x001f5470                DIRECTORY_THIS
                0x001f5474                DIRECTORY_SEPARATOR
 *(.roda)
 *(.rodata.*)
 .rodata.str1.4
                0x001f5478       0x21 1541d64.o
                                 0x24 (size before relaxing)
 *fill*         0x001f5499        0x3 
 .rodata.str1.4
                0x001f549c       0x12 1541job.o
                                 0x18 (size before relaxing)
 *fill*         0x001f54ae        0x2 
 .rodata.str1.4
                0x001f54b0       0x60 1541t64.o
                                 0x64 (size before relaxing)
 .rodata.str1.4
                0x001f5510      0x158 C64.o
                                0x160 (size before relaxing)
 .rodata._ZTV7MOS6526
                0x001f5668       0x10 CIA.o
                0x001f5668                vtable for MOS6526
 .rodata.str1.4
                0x001f5678       0x4f CPU1541.o
                                 0x50 (size before relaxing)
 *fill*         0x001f56c7        0x1 
 .rodata.str1.4
                0x001f56c8       0x41 CPUC64.o
                                 0x44 (size before relaxing)
 *fill*         0x001f5709        0x3 
 .rodata.str1.4
                0x001f570c       0x21 Display.o
                                 0x28 (size before relaxing)
 *fill*         0x001f572d        0x3 
 .rodata.str1.4
                0x001f5730      0x383 IEC.o
                                0x388 (size before relaxing)
 *fill*         0x001f5ab3        0x1 
 .rodata.str1.4
                0x001f5ab4      0x597 Prefs.o
                                0x5a0 (size before relaxing)
 *fill*         0x001f604b        0x1 
 .rodata.str1.4
                0x001f604c     0x1239 SAM.o
                               0x1250 (size before relaxing)
 *fill*         0x001f7285        0x3 
 .rodata.str1.4
                0x001f7288       0x86 main.o
                                 0xa4 (size before relaxing)
 *fill*         0x001f730e        0x2 
 .rodata.str1.4
                0x001f7310        0xf /Users/spinal/devkitPro/libctru/lib/libctru.a(srv.o)
                                 0x10 (size before relaxing)
 *fill*         0x001f731f        0x1 
 .rodata.str1.4
                0x001f7320       0x16 /Users/spinal/devkitPro/libctru/lib/libctru.a(apt.o)
                                 0x18 (size before relaxing)
 *fill*         0x001f7336        0x2 
 .rodata.str1.4
                0x001f7338        0x8 /Users/spinal/devkitPro/libctru/lib/libctru.a(fs.o)
 .rodata.str1.4
                0x001f7340        0x9 /Users/spinal/devkitPro/libctru/lib/libctru.a(gsp.o)
                                  0xc (size before relaxing)
 *fill*         0x001f7349        0x3 
 .rodata.str1.4
                0x001f734c       0x15 /Users/spinal/devkitPro/libctru/lib/libctru.a(hid.o)
                                 0x18 (size before relaxing)
 *fill*         0x001f7361        0x3 
 .rodata.str1.4
                0x001f7364        0x7 /Users/spinal/devkitPro/libctru/lib/libctru.a(irrst.o)
                                  0x8 (size before relaxing)
 *fill*         0x001f736b        0x1 
 .rodata.str1.4
                0x001f736c       0xc4 /Users/spinal/devkitPro/libctru/lib/libctru.a(os.o)
 .rodata.str1.4
                0x001f7430        0x5 /Users/spinal/devkitPro/libctru/lib/libctru.a(sdmc_dev.o)
                                  0xc (size before relaxing)
 *fill*         0x001f7435        0x3 
 .rodata._ZTIN9__gnu_cxx20recursive_init_errorE
                0x001f7438        0xc /Users/spinal/devkitPro/devkitARM/bin/../lib/gcc/arm-none-eabi/4.9.2/../../../../arm-none-eabi/lib/armv6k/fpu/libstdc++.a(guard_error.o)
                0x001f7438                typeinfo for __gnu_cxx::recursive_init_error
 .rodata._ZTSN9__gnu_cxx20recursive_init_errorE
                0x001f7444       0x24 /Users/spinal/devkitPro/devkitARM/bin/../lib/gcc/arm-none-eabi/4.9.2/../../../../arm-none-eabi/lib/armv6k/fpu/libstdc++.a(guard_error.o)
                0x001f7444                typeinfo name for __gnu_cxx::recursive_init_error
 .rodata._ZTVN9__gnu_cxx20recursive_init_errorE
                0x001f7468       0x18 /Users/spinal/devkitPro/devkitARM/bin/../lib/gcc/arm-none-eabi/4.9.2/../../../../arm-none-eabi/lib/armv6k/fpu/libstdc++.a(guard_error.o)
                0x001f7468                vtable for __gnu_cxx::recursive_init_error
 .rodata.str1.4
                0x001f7480       0x3b /Users/spinal/devkitPro/devkitARM/bin/../lib/gcc/arm-none-eabi/4.9.2/../../../../arm-none-eabi/lib/armv6k/fpu/libstdc++.a(pure.o)
                                 0x3c (size before relaxing)
 *fill*         0x001f74bb        0x5 
 .rodata._ZTVN10__cxxabiv120__si_class_type_infoE
                0x001f74c0       0x30 /Users/spinal/devkitPro/devkitARM/bin/../lib/gcc/arm-none-eabi/4.9.2/../../../../arm-none-eabi/lib/armv6k/fpu/libstdc++.a(si_class_type_info.o)
                0x001f74c0                vtable for __cxxabiv1::__si_class_type_info
 .rodata._ZTIN10__cxxabiv120__si_class_type_infoE
                0x001f74f0        0xc /Users/spinal/devkitPro/devkitARM/bin/../lib/gcc/arm-none-eabi/4.9.2/../../../../arm-none-eabi/lib/armv6k/fpu/libstdc++.a(si_class_type_info.o)
                0x001f74f0                typeinfo for __cxxabiv1::__si_class_type_info
 .rodata._ZTSN10__cxxabiv120__si_class_type_infoE
                0x001f74fc       0x28 /Users/spinal/devkitPro/devkitARM/bin/../lib/gcc/arm-none-eabi/4.9.2/../../../../arm-none-eabi/lib/armv6k/fpu/libstdc++.a(si_class_type_info.o)
                0x001f74fc                typeinfo name for __cxxabiv1::__si_class_type_info
 .rodata._ZTISt9type_info
                0x001f7524        0x8 /Users/spinal/devkitPro/devkitARM/bin/../lib/gcc/arm-none-eabi/4.9.2/../../../../arm-none-eabi/lib/armv6k/fpu/libstdc++.a(tinfo.o)
                0x001f7524                typeinfo for std::type_info
 .rodata._ZTSSt9type_info
                0x001f752c       0x10 /Users/spinal/devkitPro/devkitARM/bin/../lib/gcc/arm-none-eabi/4.9.2/../../../../arm-none-eabi/lib/armv6k/fpu/libstdc++.a(tinfo.o)
                0x001f752c                typeinfo name for std::type_info
 *fill*         0x001f753c        0x4 
 .rodata._ZTVSt9type_info
                0x001f7540       0x20 /Users/spinal/devkitPro/devkitARM/bin/../lib/gcc/arm-none-eabi/4.9.2/../../../../arm-none-eabi/lib/armv6k/fpu/libstdc++.a(tinfo.o)
                0x001f7540                vtable for std::type_info
 .rodata._ZTVSt9bad_alloc
                0x001f7560       0x18 /Users/spinal/devkitPro/devkitARM/bin/../lib/gcc/arm-none-eabi/4.9.2/../../../../arm-none-eabi/lib/armv6k/fpu/libstdc++.a(bad_alloc.o)
                0x001f7560                vtable for std::bad_alloc
 .rodata._ZTISt9bad_alloc
                0x001f7578        0xc /Users/spinal/devkitPro/devkitARM/bin/../lib/gcc/arm-none-eabi/4.9.2/../../../../arm-none-eabi/lib/armv6k/fpu/libstdc++.a(bad_alloc.o)
                0x001f7578                typeinfo for std::bad_alloc
 .rodata.str1.4
                0x001f7584        0xf /Users/spinal/devkitPro/devkitARM/bin/../lib/gcc/arm-none-eabi/4.9.2/../../../../arm-none-eabi/lib/armv6k/fpu/libstdc++.a(bad_alloc.o)
                                 0x10 (size before relaxing)
 *fill*         0x001f7593        0x1 
 .rodata._ZTSSt9bad_alloc
                0x001f7594       0x10 /Users/spinal/devkitPro/devkitARM/bin/../lib/gcc/arm-none-eabi/4.9.2/../../../../arm-none-eabi/lib/armv6k/fpu/libstdc++.a(bad_alloc.o)
                0x001f7594                typeinfo name for std::bad_alloc
 *fill*         0x001f75a4        0x4 
 .rodata._ZTVN10__cxxabiv117__class_type_infoE
                0x001f75a8       0x30 /Users/spinal/devkitPro/devkitARM/bin/../lib/gcc/arm-none-eabi/4.9.2/../../../../arm-none-eabi/lib/armv6k/fpu/libstdc++.a(class_type_info.o)
                0x001f75a8                vtable for __cxxabiv1::__class_type_info
 .rodata._ZTIN10__cxxabiv117__class_type_infoE
                0x001f75d8        0xc /Users/spinal/devkitPro/devkitARM/bin/../lib/gcc/arm-none-eabi/4.9.2/../../../../arm-none-eabi/lib/armv6k/fpu/libstdc++.a(class_type_info.o)
                0x001f75d8                typeinfo for __cxxabiv1::__class_type_info
 .rodata._ZTSN10__cxxabiv117__class_type_infoE
                0x001f75e4       0x24 /Users/spinal/devkitPro/devkitARM/bin/../lib/gcc/arm-none-eabi/4.9.2/../../../../arm-none-eabi/lib/armv6k/fpu/libstdc++.a(class_type_info.o)
                0x001f75e4                typeinfo name for __cxxabiv1::__class_type_info
 .rodata._ZTVN10__cxxabiv115__forced_unwindE
                0x001f7608       0x18 /Users/spinal/devkitPro/devkitARM/bin/../lib/gcc/arm-none-eabi/4.9.2/../../../../arm-none-eabi/lib/armv6k/fpu/libstdc++.a(eh_exception.o)
                0x001f7608                vtable for __cxxabiv1::__forced_unwind
 .rodata._ZTVN10__cxxabiv119__foreign_exceptionE
                0x001f7620       0x18 /Users/spinal/devkitPro/devkitARM/bin/../lib/gcc/arm-none-eabi/4.9.2/../../../../arm-none-eabi/lib/armv6k/fpu/libstdc++.a(eh_exception.o)
                0x001f7620                vtable for __cxxabiv1::__foreign_exception
 .rodata._ZTSN10__cxxabiv115__forced_unwindE
                0x001f7638       0x20 /Users/spinal/devkitPro/devkitARM/bin/../lib/gcc/arm-none-eabi/4.9.2/../../../../arm-none-eabi/lib/armv6k/fpu/libstdc++.a(eh_exception.o)
                0x001f7638                typeinfo name for __cxxabiv1::__forced_unwind
 .rodata._ZTIN10__cxxabiv115__forced_unwindE
                0x001f7658        0x8 /Users/spinal/devkitPro/devkitARM/bin/../lib/gcc/arm-none-eabi/4.9.2/../../../../arm-none-eabi/lib/armv6k/fpu/libstdc++.a(eh_exception.o)
                0x001f7658                typeinfo for __cxxabiv1::__forced_unwind
 .rodata._ZTISt9exception
                0x001f7660        0x8 /Users/spinal/devkitPro/devkitARM/bin/../lib/gcc/arm-none-eabi/4.9.2/../../../../arm-none-eabi/lib/armv6k/fpu/libstdc++.a(eh_exception.o)
                0x001f7660                typeinfo for std::exception
 .rodata._ZTSN10__cxxabiv119__foreign_exceptionE
                0x001f7668       0x24 /Users/spinal/devkitPro/devkitARM/bin/../lib/gcc/arm-none-eabi/4.9.2/../../../../arm-none-eabi/lib/armv6k/fpu/libstdc++.a(eh_exception.o)
                0x001f7668                typeinfo name for __cxxabiv1::__foreign_exception
 .rodata.str1.4
                0x001f768c       0x23 /Users/spinal/devkitPro/devkitARM/bin/../lib/gcc/arm-none-eabi/4.9.2/../../../../arm-none-eabi/lib/armv6k/fpu/libstdc++.a(eh_exception.o)
                                 0x24 (size before relaxing)
 *fill*         0x001f76af        0x1 
 .rodata._ZTIN10__cxxabiv119__foreign_exceptionE
                0x001f76b0        0x8 /Users/spinal/devkitPro/devkitARM/bin/../lib/gcc/arm-none-eabi/4.9.2/../../../../arm-none-eabi/lib/armv6k/fpu/libstdc++.a(eh_exception.o)
                0x001f76b0                typeinfo for __cxxabiv1::__foreign_exception
 .rodata._ZTVSt9exception
                0x001f76b8       0x18 /Users/spinal/devkitPro/devkitARM/bin/../lib/gcc/arm-none-eabi/4.9.2/../../../../arm-none-eabi/lib/armv6k/fpu/libstdc++.a(eh_exception.o)
                0x001f76b8                vtable for std::exception
 .rodata._ZTVSt13bad_exception
                0x001f76d0       0x18 /Users/spinal/devkitPro/devkitARM/bin/../lib/gcc/arm-none-eabi/4.9.2/../../../../arm-none-eabi/lib/armv6k/fpu/libstdc++.a(eh_exception.o)
                0x001f76d0                vtable for std::bad_exception
 .rodata._ZTSSt9exception
                0x001f76e8       0x10 /Users/spinal/devkitPro/devkitARM/bin/../lib/gcc/arm-none-eabi/4.9.2/../../../../arm-none-eabi/lib/armv6k/fpu/libstdc++.a(eh_exception.o)
                0x001f76e8                typeinfo name for std::exception
 .rodata._ZTSSt13bad_exception
                0x001f76f8       0x14 /Users/spinal/devkitPro/devkitARM/bin/../lib/gcc/arm-none-eabi/4.9.2/../../../../arm-none-eabi/lib/armv6k/fpu/libstdc++.a(eh_exception.o)
                0x001f76f8                typeinfo name for std::bad_exception
 .rodata._ZTISt13bad_exception
                0x001f770c        0xc /Users/spinal/devkitPro/devkitARM/bin/../lib/gcc/arm-none-eabi/4.9.2/../../../../arm-none-eabi/lib/armv6k/fpu/libstdc++.a(eh_exception.o)
                0x001f770c                typeinfo for std::bad_exception
 .rodata._ZSt7nothrow
                0x001f7718        0x4 /Users/spinal/devkitPro/devkitARM/bin/../lib/gcc/arm-none-eabi/4.9.2/../../../../arm-none-eabi/lib/armv6k/fpu/libstdc++.a(new_handler.o)
                0x001f7718                std::nothrow
 .rodata.str1.4
                0x001f771c       0x90 /Users/spinal/devkitPro/devkitARM/bin/../lib/gcc/arm-none-eabi/4.9.2/../../../../arm-none-eabi/lib/armv6k/fpu/libstdc++.a(vterminate.o)
                                 0x94 (size before relaxing)
 .rodata.str1.4
                0x001f77ac      0x7d2 /Users/spinal/devkitPro/devkitARM/bin/../lib/gcc/arm-none-eabi/4.9.2/../../../../arm-none-eabi/lib/armv6k/fpu/libstdc++.a(cp-demangle.o)
                                0x840 (size before relaxing)
 *fill*         0x001f7f7e        0x2 
 .rodata.npio2_hw
                0x001f7f80       0x80 /Users/spinal/devkitPro/devkitARM/bin/../lib/gcc/arm-none-eabi/4.9.2/../../../../arm-none-eabi/lib/armv6k/fpu/libm.a(lib_a-e_rem_pio2.o)
 .rodata.two_over_pi
                0x001f8000      0x108 /Users/spinal/devkitPro/devkitARM/bin/../lib/gcc/arm-none-eabi/4.9.2/../../../../arm-none-eabi/lib/armv6k/fpu/libm.a(lib_a-e_rem_pio2.o)
 .rodata.init_jk
                0x001f8108       0x10 /Users/spinal/devkitPro/devkitARM/bin/../lib/gcc/arm-none-eabi/4.9.2/../../../../arm-none-eabi/lib/armv6k/fpu/libm.a(lib_a-k_rem_pio2.o)
 .rodata.PIo2   0x001f8118       0x40 /Users/spinal/devkitPro/devkitARM/bin/../lib/gcc/arm-none-eabi/4.9.2/../../../../arm-none-eabi/lib/armv6k/fpu/libm.a(lib_a-k_rem_pio2.o)
 .rodata.str1.4
                0x001f8158        0x2 /Users/spinal/devkitPro/devkitARM/bin/../lib/gcc/arm-none-eabi/4.9.2/../../../../arm-none-eabi/lib/armv6k/fpu/libg.a(lib_a-impure.o)
                                  0x4 (size before relaxing)
 *fill*         0x001f815a        0x2 
 .rodata._global_impure_ptr
                0x001f815c        0x4 /Users/spinal/devkitPro/devkitARM/bin/../lib/gcc/arm-none-eabi/4.9.2/../../../../arm-none-eabi/lib/armv6k/fpu/libg.a(lib_a-impure.o)
                0x001f815c                _global_impure_ptr
 .rodata.str1.4
                0x001f8160        0x2 /Users/spinal/devkitPro/devkitARM/bin/../lib/gcc/arm-none-eabi/4.9.2/../../../../arm-none-eabi/lib/armv6k/fpu/libg.a(lib_a-puts.o)
                                  0x4 (size before relaxing)
 .rodata.zeroes.7037
                0x001f8160       0x10 /Users/spinal/devkitPro/devkitARM/bin/../lib/gcc/arm-none-eabi/4.9.2/../../../../arm-none-eabi/lib/armv6k/fpu/libg.a(lib_a-svfprintf.o)
 .rodata.str1.4
                0x001f8170       0x3f /Users/spinal/devkitPro/devkitARM/bin/../lib/gcc/arm-none-eabi/4.9.2/../../../../arm-none-eabi/lib/armv6k/fpu/libg.a(lib_a-svfprintf.o)
                                 0x44 (size before relaxing)
 *fill*         0x001f81af        0x1 
 .rodata.blanks.7036
                0x001f81b0       0x10 /Users/spinal/devkitPro/devkitARM/bin/../lib/gcc/arm-none-eabi/4.9.2/../../../../arm-none-eabi/lib/armv6k/fpu/libg.a(lib_a-svfprintf.o)
 .rodata.str1.4
                0x001f81c0        0x5 /Users/spinal/devkitPro/devkitARM/bin/../lib/gcc/arm-none-eabi/4.9.2/../../../../arm-none-eabi/lib/armv6k/fpu/libg.a(lib_a-svfscanf.o)
                                  0x8 (size before relaxing)
 *fill*         0x001f81c5        0x3 
 .rodata.basefix.6958
                0x001f81c8       0x24 /Users/spinal/devkitPro/devkitARM/bin/../lib/gcc/arm-none-eabi/4.9.2/../../../../arm-none-eabi/lib/armv6k/fpu/libg.a(lib_a-svfscanf.o)
 .rodata.zeroes.7030
                0x001f81ec       0x10 /Users/spinal/devkitPro/devkitARM/bin/../lib/gcc/arm-none-eabi/4.9.2/../../../../arm-none-eabi/lib/armv6k/fpu/libg.a(lib_a-vfiprintf.o)
 .rodata.str1.4
                0x001f81fc       0x30 /Users/spinal/devkitPro/devkitARM/bin/../lib/gcc/arm-none-eabi/4.9.2/../../../../arm-none-eabi/lib/armv6k/fpu/libg.a(lib_a-vfiprintf.o)
 .rodata.blanks.7029
                0x001f81fc       0x10 /Users/spinal/devkitPro/devkitARM/bin/../lib/gcc/arm-none-eabi/4.9.2/../../../../arm-none-eabi/lib/armv6k/fpu/libg.a(lib_a-vfiprintf.o)
 .rodata.zeroes.7052
                0x001f820c       0x10 /Users/spinal/devkitPro/devkitARM/bin/../lib/gcc/arm-none-eabi/4.9.2/../../../../arm-none-eabi/lib/armv6k/fpu/libg.a(lib_a-vfprintf.o)
 .rodata.str1.4
                0x001f821c       0x44 /Users/spinal/devkitPro/devkitARM/bin/../lib/gcc/arm-none-eabi/4.9.2/../../../../arm-none-eabi/lib/armv6k/fpu/libg.a(lib_a-vfprintf.o)
 .rodata.blanks.7051
                0x001f821c       0x10 /Users/spinal/devkitPro/devkitARM/bin/../lib/gcc/arm-none-eabi/4.9.2/../../../../arm-none-eabi/lib/armv6k/fpu/libg.a(lib_a-vfprintf.o)
 .rodata.basefix.6977
                0x001f822c       0x24 /Users/spinal/devkitPro/devkitARM/bin/../lib/gcc/arm-none-eabi/4.9.2/../../../../arm-none-eabi/lib/armv6k/fpu/libg.a(lib_a-vfscanf.o)
 .rodata.str1.4
                0x001f8250        0x8 /Users/spinal/devkitPro/devkitARM/bin/../lib/gcc/arm-none-eabi/4.9.2/../../../../arm-none-eabi/lib/armv6k/fpu/libg.a(lib_a-vfscanf.o)
 .rodata._ctype_
                0x001f8250      0x104 /Users/spinal/devkitPro/devkitARM/bin/../lib/gcc/arm-none-eabi/4.9.2/../../../../arm-none-eabi/lib/armv6k/fpu/libg.a(lib_a-ctype_.o)
                0x001f8250                _ctype_
 .rodata.str1.4
                0x001f8354       0x10 /Users/spinal/devkitPro/devkitARM/bin/../lib/gcc/arm-none-eabi/4.9.2/../../../../arm-none-eabi/lib/armv6k/fpu/libg.a(lib_a-dtoa.o)
                                 0x14 (size before relaxing)
 .rodata.a1     0x001f8364       0xbc /Users/spinal/devkitPro/devkitARM/bin/../lib/gcc/arm-none-eabi/4.9.2/../../../../arm-none-eabi/lib/armv6k/fpu/libg.a(lib_a-jp2uc.o)
 .rodata.a2     0x001f8420       0xbc /Users/spinal/devkitPro/devkitARM/bin/../lib/gcc/arm-none-eabi/4.9.2/../../../../arm-none-eabi/lib/armv6k/fpu/libg.a(lib_a-jp2uc.o)
 .rodata.a3     0x001f84dc       0x5c /Users/spinal/devkitPro/devkitARM/bin/../lib/gcc/arm-none-eabi/4.9.2/../../../../arm-none-eabi/lib/armv6k/fpu/libg.a(lib_a-jp2uc.o)
 .rodata.a6     0x001f8538       0x70 /Users/spinal/devkitPro/devkitARM/bin/../lib/gcc/arm-none-eabi/4.9.2/../../../../arm-none-eabi/lib/armv6k/fpu/libg.a(lib_a-jp2uc.o)
 .rodata.a7     0x001f85a8       0xa4 /Users/spinal/devkitPro/devkitARM/bin/../lib/gcc/arm-none-eabi/4.9.2/../../../../arm-none-eabi/lib/armv6k/fpu/libg.a(lib_a-jp2uc.o)
 .rodata.a8     0x001f864c       0x40 /Users/spinal/devkitPro/devkitARM/bin/../lib/gcc/arm-none-eabi/4.9.2/../../../../arm-none-eabi/lib/armv6k/fpu/libg.a(lib_a-jp2uc.o)
 .rodata.str1.4
                0x001f868c       0x12 /Users/spinal/devkitPro/devkitARM/bin/../lib/gcc/arm-none-eabi/4.9.2/../../../../arm-none-eabi/lib/armv6k/fpu/libg.a(lib_a-jp2uc.o)
                                 0x14 (size before relaxing)
 *fill*         0x001f869e        0x2 
 .rodata.b02cf  0x001f86a0     0x172c /Users/spinal/devkitPro/devkitARM/bin/../lib/gcc/arm-none-eabi/4.9.2/../../../../arm-none-eabi/lib/armv6k/fpu/libg.a(lib_a-jp2uc.o)
 .rodata.d02f4  0x001f9dcc     0x1a7c /Users/spinal/devkitPro/devkitARM/bin/../lib/gcc/arm-none-eabi/4.9.2/../../../../arm-none-eabi/lib/armv6k/fpu/libg.a(lib_a-jp2uc.o)
 .rodata.str1.4
                0x001fb848      0x10c /Users/spinal/devkitPro/devkitARM/bin/../lib/gcc/arm-none-eabi/4.9.2/../../../../arm-none-eabi/lib/armv6k/fpu/libg.a(lib_a-locale.o)
                                0x130 (size before relaxing)
 .rodata.categories
                0x001fb954       0x1c /Users/spinal/devkitPro/devkitARM/bin/../lib/gcc/arm-none-eabi/4.9.2/../../../../arm-none-eabi/lib/armv6k/fpu/libg.a(lib_a-locale.o)
 .rodata.str1.4
                0x001fb970        0x4 /Users/spinal/devkitPro/devkitARM/bin/../lib/gcc/arm-none-eabi/4.9.2/../../../../arm-none-eabi/lib/armv6k/fpu/libg.a(lib_a-mbrtowc.o)
 .rodata.JIS_state_table
                0x001fb970       0x48 /Users/spinal/devkitPro/devkitARM/bin/../lib/gcc/arm-none-eabi/4.9.2/../../../../arm-none-eabi/lib/armv6k/fpu/libg.a(lib_a-mbtowc_r.o)
 .rodata.JIS_action_table
                0x001fb9b8       0x48 /Users/spinal/devkitPro/devkitARM/bin/../lib/gcc/arm-none-eabi/4.9.2/../../../../arm-none-eabi/lib/armv6k/fpu/libg.a(lib_a-mbtowc_r.o)
 .rodata.p05.5298
                0x001fba00        0xc /Users/spinal/devkitPro/devkitARM/bin/../lib/gcc/arm-none-eabi/4.9.2/../../../../arm-none-eabi/lib/armv6k/fpu/libg.a(lib_a-mprec.o)
 *fill*         0x001fba0c        0x4 
 .rodata.__mprec_tens
                0x001fba10       0xc8 /Users/spinal/devkitPro/devkitARM/bin/../lib/gcc/arm-none-eabi/4.9.2/../../../../arm-none-eabi/lib/armv6k/fpu/libg.a(lib_a-mprec.o)
                0x001fba10                __mprec_tens
 .rodata.__mprec_bigtens
                0x001fbad8       0x28 /Users/spinal/devkitPro/devkitARM/bin/../lib/gcc/arm-none-eabi/4.9.2/../../../../arm-none-eabi/lib/armv6k/fpu/libg.a(lib_a-mprec.o)
                0x001fbad8                __mprec_bigtens
 .rodata.__mprec_tinytens
                0x001fbb00       0x28 /Users/spinal/devkitPro/devkitARM/bin/../lib/gcc/arm-none-eabi/4.9.2/../../../../arm-none-eabi/lib/armv6k/fpu/libg.a(lib_a-mprec.o)
                0x001fbb00                __mprec_tinytens
 .rodata.fpinan.5303
                0x001fbb28       0x14 /Users/spinal/devkitPro/devkitARM/bin/../lib/gcc/arm-none-eabi/4.9.2/../../../../arm-none-eabi/lib/armv6k/fpu/libg.a(lib_a-strtod.o)
 .rodata.str1.4
                0x001fbb3c        0xa /Users/spinal/devkitPro/devkitARM/bin/../lib/gcc/arm-none-eabi/4.9.2/../../../../arm-none-eabi/lib/armv6k/fpu/libg.a(lib_a-strtod.o)
                                 0x10 (size before relaxing)
 *fill*         0x001fbb46        0x2 
 .rodata.tinytens
                0x001fbb48       0x28 /Users/spinal/devkitPro/devkitARM/bin/../lib/gcc/arm-none-eabi/4.9.2/../../../../arm-none-eabi/lib/armv6k/fpu/libg.a(lib_a-strtod.o)
 .rodata.fpi.5267
                0x001fbb70       0x14 /Users/spinal/devkitPro/devkitARM/bin/../lib/gcc/arm-none-eabi/4.9.2/../../../../arm-none-eabi/lib/armv6k/fpu/libg.a(lib_a-strtod.o)
 .rodata.__state_table
                0x001fbb84       0x6c /Users/spinal/devkitPro/devkitARM/bin/../lib/gcc/arm-none-eabi/4.9.2/../../../../arm-none-eabi/lib/armv6k/fpu/libg.a(lib_a-svfiprintf.o)
                0x001fbb84                __state_table
 .rodata.blanks.7015
                0x001fbbf0       0x10 /Users/spinal/devkitPro/devkitARM/bin/../lib/gcc/arm-none-eabi/4.9.2/../../../../arm-none-eabi/lib/armv6k/fpu/libg.a(lib_a-svfiprintf.o)
 .rodata.__chclass
                0x001fbc00      0x100 /Users/spinal/devkitPro/devkitARM/bin/../lib/gcc/arm-none-eabi/4.9.2/../../../../arm-none-eabi/lib/armv6k/fpu/libg.a(lib_a-svfiprintf.o)
                0x001fbc00                __chclass
 .rodata.str1.4
                0x001fbd00       0x30 /Users/spinal/devkitPro/devkitARM/bin/../lib/gcc/arm-none-eabi/4.9.2/../../../../arm-none-eabi/lib/armv6k/fpu/libg.a(lib_a-svfiprintf.o)
 .rodata.__action_table
                0x001fbd00       0x6c /Users/spinal/devkitPro/devkitARM/bin/../lib/gcc/arm-none-eabi/4.9.2/../../../../arm-none-eabi/lib/armv6k/fpu/libg.a(lib_a-svfiprintf.o)
                0x001fbd00                __action_table
 .rodata.zeroes.7016
                0x001fbd6c       0x10 /Users/spinal/devkitPro/devkitARM/bin/../lib/gcc/arm-none-eabi/4.9.2/../../../../arm-none-eabi/lib/armv6k/fpu/libg.a(lib_a-svfiprintf.o)
 .rodata.basefix.6409
                0x001fbd7c       0x24 /Users/spinal/devkitPro/devkitARM/bin/../lib/gcc/arm-none-eabi/4.9.2/../../../../arm-none-eabi/lib/armv6k/fpu/libg.a(lib_a-svfiscanf.o)
 .rodata.__hexdig
                0x001fbda0      0x100 /Users/spinal/devkitPro/devkitARM/bin/../lib/gcc/arm-none-eabi/4.9.2/../../../../arm-none-eabi/lib/armv6k/fpu/libg.a(lib_a-gdtoa-gethex.o)
                0x001fbda0                __hexdig
 .rodata.str1.4
                0x001fbea0        0x8 /Users/spinal/devkitPro/devkitARM/bin/../lib/gcc/arm-none-eabi/4.9.2/../../../../arm-none-eabi/lib/armv6k/fpu/libsysbase.a(iosupport.o)
 *all.rodata*(*)
 *(.gnu.linkonce.r*)
                0x001fbea8                . = ALIGN (0x4)

.ARM.extab      0x001fbea8      0x138
 *(.ARM.extab* .gnu.linkonce.armextab.*)
 .ARM.extab.text._ZdlPv
                0x001fbea8        0x0 /Users/spinal/devkitPro/devkitARM/bin/../lib/gcc/arm-none-eabi/4.9.2/../../../../arm-none-eabi/lib/armv6k/fpu/libstdc++.a(del_op.o)
 .ARM.extab.text._ZdaPv
                0x001fbea8        0x0 /Users/spinal/devkitPro/devkitARM/bin/../lib/gcc/arm-none-eabi/4.9.2/../../../../arm-none-eabi/lib/armv6k/fpu/libstdc++.a(del_opv.o)
 .ARM.extab.text.__cxa_guard_acquire
                0x001fbea8        0xc /Users/spinal/devkitPro/devkitARM/bin/../lib/gcc/arm-none-eabi/4.9.2/../../../../arm-none-eabi/lib/armv6k/fpu/libstdc++.a(guard.o)
 .ARM.extab.text.__cxa_guard_abort
                0x001fbeb4        0x0 /Users/spinal/devkitPro/devkitARM/bin/../lib/gcc/arm-none-eabi/4.9.2/../../../../arm-none-eabi/lib/armv6k/fpu/libstdc++.a(guard.o)
 .ARM.extab.text.__cxa_guard_release
                0x001fbeb4        0x0 /Users/spinal/devkitPro/devkitARM/bin/../lib/gcc/arm-none-eabi/4.9.2/../../../../arm-none-eabi/lib/armv6k/fpu/libstdc++.a(guard.o)
 .ARM.extab.text._ZN9__gnu_cxx20recursive_init_errorD2Ev
                0x001fbeb4        0x0 /Users/spinal/devkitPro/devkitARM/bin/../lib/gcc/arm-none-eabi/4.9.2/../../../../arm-none-eabi/lib/armv6k/fpu/libstdc++.a(guard_error.o)
 .ARM.extab.text._ZN9__gnu_cxx20recursive_init_errorD0Ev
                0x001fbeb4        0x0 /Users/spinal/devkitPro/devkitARM/bin/../lib/gcc/arm-none-eabi/4.9.2/../../../../arm-none-eabi/lib/armv6k/fpu/libstdc++.a(guard_error.o)
 .ARM.extab.text._Znwj
                0x001fbeb4        0x0 /Users/spinal/devkitPro/devkitARM/bin/../lib/gcc/arm-none-eabi/4.9.2/../../../../arm-none-eabi/lib/armv6k/fpu/libstdc++.a(new_op.o)
 .ARM.extab.text._Znaj
                0x001fbeb4       0x24 /Users/spinal/devkitPro/devkitARM/bin/../lib/gcc/arm-none-eabi/4.9.2/../../../../arm-none-eabi/lib/armv6k/fpu/libstdc++.a(new_opv.o)
 .ARM.extab.text.__cxa_pure_virtual
                0x001fbed8        0xc /Users/spinal/devkitPro/devkitARM/bin/../lib/gcc/arm-none-eabi/4.9.2/../../../../arm-none-eabi/lib/armv6k/fpu/libstdc++.a(pure.o)
 .ARM.extab.text.__cxa_deleted_virtual
                0x001fbee4        0xc /Users/spinal/devkitPro/devkitARM/bin/../lib/gcc/arm-none-eabi/4.9.2/../../../../arm-none-eabi/lib/armv6k/fpu/libstdc++.a(pure.o)
 .ARM.extab.text._ZN10__cxxabiv120__si_class_type_infoD2Ev
                0x001fbef0        0x0 /Users/spinal/devkitPro/devkitARM/bin/../lib/gcc/arm-none-eabi/4.9.2/../../../../arm-none-eabi/lib/armv6k/fpu/libstdc++.a(si_class_type_info.o)
 .ARM.extab.text._ZN10__cxxabiv120__si_class_type_infoD0Ev
                0x001fbef0        0x0 /Users/spinal/devkitPro/devkitARM/bin/../lib/gcc/arm-none-eabi/4.9.2/../../../../arm-none-eabi/lib/armv6k/fpu/libstdc++.a(si_class_type_info.o)
 .ARM.extab.text._ZNK10__cxxabiv120__si_class_type_info20__do_find_public_srcEiPKvPKNS_17__class_type_infoES2_
                0x001fbef0        0x0 /Users/spinal/devkitPro/devkitARM/bin/../lib/gcc/arm-none-eabi/4.9.2/../../../../arm-none-eabi/lib/armv6k/fpu/libstdc++.a(si_class_type_info.o)
 .ARM.extab.text._ZNK10__cxxabiv120__si_class_type_info12__do_dyncastEiNS_17__class_type_info10__sub_kindEPKS1_PKvS4_S6_RNS1_16__dyncast_resultE
                0x001fbef0        0x0 /Users/spinal/devkitPro/devkitARM/bin/../lib/gcc/arm-none-eabi/4.9.2/../../../../arm-none-eabi/lib/armv6k/fpu/libstdc++.a(si_class_type_info.o)
 .ARM.extab.text._ZNK10__cxxabiv120__si_class_type_info11__do_upcastEPKNS_17__class_type_infoEPKvRNS1_15__upcast_resultE
                0x001fbef0        0x0 /Users/spinal/devkitPro/devkitARM/bin/../lib/gcc/arm-none-eabi/4.9.2/../../../../arm-none-eabi/lib/armv6k/fpu/libstdc++.a(si_class_type_info.o)
 .ARM.extab.text._ZNSt9type_infoD2Ev
                0x001fbef0        0x0 /Users/spinal/devkitPro/devkitARM/bin/../lib/gcc/arm-none-eabi/4.9.2/../../../../arm-none-eabi/lib/armv6k/fpu/libstdc++.a(tinfo.o)
 .ARM.extab.text._ZNKSt9type_info14__is_pointer_pEv
                0x001fbef0        0x0 /Users/spinal/devkitPro/devkitARM/bin/../lib/gcc/arm-none-eabi/4.9.2/../../../../arm-none-eabi/lib/armv6k/fpu/libstdc++.a(tinfo.o)
 .ARM.extab.text._ZNKSt9type_info15__is_function_pEv
                0x001fbef0        0x0 /Users/spinal/devkitPro/devkitARM/bin/../lib/gcc/arm-none-eabi/4.9.2/../../../../arm-none-eabi/lib/armv6k/fpu/libstdc++.a(tinfo.o)
 .ARM.extab.text._ZNKSt9type_info11__do_upcastEPKN10__cxxabiv117__class_type_infoEPPv
                0x001fbef0        0x0 /Users/spinal/devkitPro/devkitARM/bin/../lib/gcc/arm-none-eabi/4.9.2/../../../../arm-none-eabi/lib/armv6k/fpu/libstdc++.a(tinfo.o)
 .ARM.extab.text._ZNSt9type_infoD0Ev
                0x001fbef0        0x0 /Users/spinal/devkitPro/devkitARM/bin/../lib/gcc/arm-none-eabi/4.9.2/../../../../arm-none-eabi/lib/armv6k/fpu/libstdc++.a(tinfo.o)
 .ARM.extab.text._ZNKSt9type_infoeqERKS_
                0x001fbef0        0x0 /Users/spinal/devkitPro/devkitARM/bin/../lib/gcc/arm-none-eabi/4.9.2/../../../../arm-none-eabi/lib/armv6k/fpu/libstdc++.a(tinfo.o)
 .ARM.extab.text._ZNKSt9type_info10__do_catchEPKS_PPvj
                0x001fbef0        0x0 /Users/spinal/devkitPro/devkitARM/bin/../lib/gcc/arm-none-eabi/4.9.2/../../../../arm-none-eabi/lib/armv6k/fpu/libstdc++.a(tinfo.o)
 .ARM.extab.text._ZNKSt9bad_alloc4whatEv
                0x001fbef0        0x0 /Users/spinal/devkitPro/devkitARM/bin/../lib/gcc/arm-none-eabi/4.9.2/../../../../arm-none-eabi/lib/armv6k/fpu/libstdc++.a(bad_alloc.o)
 .ARM.extab.text._ZNSt9bad_allocD2Ev
                0x001fbef0        0x0 /Users/spinal/devkitPro/devkitARM/bin/../lib/gcc/arm-none-eabi/4.9.2/../../../../arm-none-eabi/lib/armv6k/fpu/libstdc++.a(bad_alloc.o)
 .ARM.extab.text._ZNSt9bad_allocD0Ev
                0x001fbef0        0x0 /Users/spinal/devkitPro/devkitARM/bin/../lib/gcc/arm-none-eabi/4.9.2/../../../../arm-none-eabi/lib/armv6k/fpu/libstdc++.a(bad_alloc.o)
 .ARM.extab.text._ZNK10__cxxabiv117__class_type_info11__do_upcastEPKS0_PPv
                0x001fbef0        0x0 /Users/spinal/devkitPro/devkitARM/bin/../lib/gcc/arm-none-eabi/4.9.2/../../../../arm-none-eabi/lib/armv6k/fpu/libstdc++.a(class_type_info.o)
 .ARM.extab.text._ZNK10__cxxabiv117__class_type_info20__do_find_public_srcEiPKvPKS0_S2_
                0x001fbef0        0x0 /Users/spinal/devkitPro/devkitARM/bin/../lib/gcc/arm-none-eabi/4.9.2/../../../../arm-none-eabi/lib/armv6k/fpu/libstdc++.a(class_type_info.o)
 .ARM.extab.text._ZN10__cxxabiv117__class_type_infoD2Ev
                0x001fbef0        0x0 /Users/spinal/devkitPro/devkitARM/bin/../lib/gcc/arm-none-eabi/4.9.2/../../../../arm-none-eabi/lib/armv6k/fpu/libstdc++.a(class_type_info.o)
 .ARM.extab.text._ZN10__cxxabiv117__class_type_infoD0Ev
                0x001fbef0        0x0 /Users/spinal/devkitPro/devkitARM/bin/../lib/gcc/arm-none-eabi/4.9.2/../../../../arm-none-eabi/lib/armv6k/fpu/libstdc++.a(class_type_info.o)
 .ARM.extab.text._ZNK10__cxxabiv117__class_type_info11__do_upcastEPKS0_PKvRNS0_15__upcast_resultE
                0x001fbef0        0x0 /Users/spinal/devkitPro/devkitARM/bin/../lib/gcc/arm-none-eabi/4.9.2/../../../../arm-none-eabi/lib/armv6k/fpu/libstdc++.a(class_type_info.o)
 .ARM.extab.text._ZNK10__cxxabiv117__class_type_info10__do_catchEPKSt9type_infoPPvj
                0x001fbef0        0x0 /Users/spinal/devkitPro/devkitARM/bin/../lib/gcc/arm-none-eabi/4.9.2/../../../../arm-none-eabi/lib/armv6k/fpu/libstdc++.a(class_type_info.o)
 .ARM.extab.text._ZNK10__cxxabiv117__class_type_info12__do_dyncastEiNS0_10__sub_kindEPKS0_PKvS3_S5_RNS0_16__dyncast_resultE
                0x001fbef0        0x0 /Users/spinal/devkitPro/devkitARM/bin/../lib/gcc/arm-none-eabi/4.9.2/../../../../arm-none-eabi/lib/armv6k/fpu/libstdc++.a(class_type_info.o)
 .ARM.extab.text.__cxa_allocate_exception
                0x001fbef0        0x0 /Users/spinal/devkitPro/devkitARM/bin/../lib/gcc/arm-none-eabi/4.9.2/../../../../arm-none-eabi/lib/armv6k/fpu/libstdc++.a(eh_alloc.o)
 .ARM.extab.text.__cxa_free_exception
                0x001fbef0        0x0 /Users/spinal/devkitPro/devkitARM/bin/../lib/gcc/arm-none-eabi/4.9.2/../../../../arm-none-eabi/lib/armv6k/fpu/libstdc++.a(eh_alloc.o)
 .ARM.extab.text.__cxa_allocate_dependent_exception
                0x001fbef0        0x0 /Users/spinal/devkitPro/devkitARM/bin/../lib/gcc/arm-none-eabi/4.9.2/../../../../arm-none-eabi/lib/armv6k/fpu/libstdc++.a(eh_alloc.o)
 .ARM.extab.text.__cxa_free_dependent_exception
                0x001fbef0        0x0 /Users/spinal/devkitPro/devkitARM/bin/../lib/gcc/arm-none-eabi/4.9.2/../../../../arm-none-eabi/lib/armv6k/fpu/libstdc++.a(eh_alloc.o)
 .ARM.extab.text.__cxa_type_match
                0x001fbef0        0x0 /Users/spinal/devkitPro/devkitARM/bin/../lib/gcc/arm-none-eabi/4.9.2/../../../../arm-none-eabi/lib/armv6k/fpu/libstdc++.a(eh_arm.o)
 .ARM.extab.text.__cxa_begin_cleanup
                0x001fbef0        0x0 /Users/spinal/devkitPro/devkitARM/bin/../lib/gcc/arm-none-eabi/4.9.2/../../../../arm-none-eabi/lib/armv6k/fpu/libstdc++.a(eh_arm.o)
 .ARM.extab.text.__gnu_end_cleanup
                0x001fbef0        0x0 /Users/spinal/devkitPro/devkitARM/bin/../lib/gcc/arm-none-eabi/4.9.2/../../../../arm-none-eabi/lib/armv6k/fpu/libstdc++.a(eh_arm.o)
 .ARM.extab.text._ZN10__cxxabiv1L24__is_gxx_exception_classEPc
                0x001fbef0        0x0 /Users/spinal/devkitPro/devkitARM/bin/../lib/gcc/arm-none-eabi/4.9.2/../../../../arm-none-eabi/lib/armv6k/fpu/libstdc++.a(eh_call.o)
 .ARM.extab.text.__cxa_call_terminate
                0x001fbef0        0x0 /Users/spinal/devkitPro/devkitARM/bin/../lib/gcc/arm-none-eabi/4.9.2/../../../../arm-none-eabi/lib/armv6k/fpu/libstdc++.a(eh_call.o)
 .ARM.extab.text.__cxa_call_unexpected
                0x001fbef0       0x28 /Users/spinal/devkitPro/devkitARM/bin/../lib/gcc/arm-none-eabi/4.9.2/../../../../arm-none-eabi/lib/armv6k/fpu/libstdc++.a(eh_call.o)
 .ARM.extab.text.__cxa_get_exception_ptr
                0x001fbf18        0x0 /Users/spinal/devkitPro/devkitARM/bin/../lib/gcc/arm-none-eabi/4.9.2/../../../../arm-none-eabi/lib/armv6k/fpu/libstdc++.a(eh_catch.o)
 .ARM.extab.text.__cxa_begin_catch
                0x001fbf18       0x20 /Users/spinal/devkitPro/devkitARM/bin/../lib/gcc/arm-none-eabi/4.9.2/../../../../arm-none-eabi/lib/armv6k/fpu/libstdc++.a(eh_catch.o)
 .ARM.extab.text.__cxa_end_catch
                0x001fbf38        0x0 /Users/spinal/devkitPro/devkitARM/bin/../lib/gcc/arm-none-eabi/4.9.2/../../../../arm-none-eabi/lib/armv6k/fpu/libstdc++.a(eh_catch.o)
 .ARM.extab.text._ZSt18uncaught_exceptionv
                0x001fbf38        0x0 /Users/spinal/devkitPro/devkitARM/bin/../lib/gcc/arm-none-eabi/4.9.2/../../../../arm-none-eabi/lib/armv6k/fpu/libstdc++.a(eh_catch.o)
 .ARM.extab.text._ZNSt9exceptionD2Ev
                0x001fbf38        0x0 /Users/spinal/devkitPro/devkitARM/bin/../lib/gcc/arm-none-eabi/4.9.2/../../../../arm-none-eabi/lib/armv6k/fpu/libstdc++.a(eh_exception.o)
 .ARM.extab.text._ZNSt13bad_exceptionD2Ev
                0x001fbf38        0x0 /Users/spinal/devkitPro/devkitARM/bin/../lib/gcc/arm-none-eabi/4.9.2/../../../../arm-none-eabi/lib/armv6k/fpu/libstdc++.a(eh_exception.o)
 .ARM.extab.text._ZNKSt9exception4whatEv
                0x001fbf38        0x0 /Users/spinal/devkitPro/devkitARM/bin/../lib/gcc/arm-none-eabi/4.9.2/../../../../arm-none-eabi/lib/armv6k/fpu/libstdc++.a(eh_exception.o)
 .ARM.extab.text._ZNKSt13bad_exception4whatEv
                0x001fbf38        0x0 /Users/spinal/devkitPro/devkitARM/bin/../lib/gcc/arm-none-eabi/4.9.2/../../../../arm-none-eabi/lib/armv6k/fpu/libstdc++.a(eh_exception.o)
 .ARM.extab.text._ZNSt9exceptionD0Ev
                0x001fbf38        0x0 /Users/spinal/devkitPro/devkitARM/bin/../lib/gcc/arm-none-eabi/4.9.2/../../../../arm-none-eabi/lib/armv6k/fpu/libstdc++.a(eh_exception.o)
 .ARM.extab.text._ZNSt13bad_exceptionD0Ev
                0x001fbf38        0x0 /Users/spinal/devkitPro/devkitARM/bin/../lib/gcc/arm-none-eabi/4.9.2/../../../../arm-none-eabi/lib/armv6k/fpu/libstdc++.a(eh_exception.o)
 .ARM.extab.text._ZN10__cxxabiv115__forced_unwindD2Ev
                0x001fbf38        0x0 /Users/spinal/devkitPro/devkitARM/bin/../lib/gcc/arm-none-eabi/4.9.2/../../../../arm-none-eabi/lib/armv6k/fpu/libstdc++.a(eh_exception.o)
 .ARM.extab.text._ZN10__cxxabiv115__forced_unwindD0Ev
                0x001fbf38        0x0 /Users/spinal/devkitPro/devkitARM/bin/../lib/gcc/arm-none-eabi/4.9.2/../../../../arm-none-eabi/lib/armv6k/fpu/libstdc++.a(eh_exception.o)
 .ARM.extab.text._ZN10__cxxabiv119__foreign_exceptionD2Ev
                0x001fbf38        0x0 /Users/spinal/devkitPro/devkitARM/bin/../lib/gcc/arm-none-eabi/4.9.2/../../../../arm-none-eabi/lib/armv6k/fpu/libstdc++.a(eh_exception.o)
 .ARM.extab.text._ZN10__cxxabiv119__foreign_exceptionD0Ev
                0x001fbf38        0x0 /Users/spinal/devkitPro/devkitARM/bin/../lib/gcc/arm-none-eabi/4.9.2/../../../../arm-none-eabi/lib/armv6k/fpu/libstdc++.a(eh_exception.o)
 .ARM.extab.text.__cxa_get_globals_fast
                0x001fbf38        0x0 /Users/spinal/devkitPro/devkitARM/bin/../lib/gcc/arm-none-eabi/4.9.2/../../../../arm-none-eabi/lib/armv6k/fpu/libstdc++.a(eh_globals.o)
 .ARM.extab.text.__cxa_get_globals
                0x001fbf38        0x0 /Users/spinal/devkitPro/devkitARM/bin/../lib/gcc/arm-none-eabi/4.9.2/../../../../arm-none-eabi/lib/armv6k/fpu/libstdc++.a(eh_globals.o)
 .ARM.extab.text._ZL12read_sleb128PKhPl
                0x001fbf38        0x0 /Users/spinal/devkitPro/devkitARM/bin/../lib/gcc/arm-none-eabi/4.9.2/../../../../arm-none-eabi/lib/armv6k/fpu/libstdc++.a(eh_personality.o)
 .ARM.extab.text._ZL28read_encoded_value_with_basehjPKhPj
                0x001fbf38        0x0 /Users/spinal/devkitPro/devkitARM/bin/../lib/gcc/arm-none-eabi/4.9.2/../../../../arm-none-eabi/lib/armv6k/fpu/libstdc++.a(eh_personality.o)
 .ARM.extab.text._ZL21base_of_encoded_valuehP15_Unwind_Context
                0x001fbf38        0xc /Users/spinal/devkitPro/devkitARM/bin/../lib/gcc/arm-none-eabi/4.9.2/../../../../arm-none-eabi/lib/armv6k/fpu/libstdc++.a(eh_personality.o)
 .ARM.extab.text._ZL17parse_lsda_headerP15_Unwind_ContextPKhP16lsda_header_info
                0x001fbf44        0x0 /Users/spinal/devkitPro/devkitARM/bin/../lib/gcc/arm-none-eabi/4.9.2/../../../../arm-none-eabi/lib/armv6k/fpu/libstdc++.a(eh_personality.o)
 .ARM.extab.text.__gxx_personality_v0
                0x001fbf44       0x24 /Users/spinal/devkitPro/devkitARM/bin/../lib/gcc/arm-none-eabi/4.9.2/../../../../arm-none-eabi/lib/armv6k/fpu/libstdc++.a(eh_personality.o)
 .ARM.extab.text._ZN10__cxxabiv111__terminateEPFvvE
                0x001fbf68       0x2c /Users/spinal/devkitPro/devkitARM/bin/../lib/gcc/arm-none-eabi/4.9.2/../../../../arm-none-eabi/lib/armv6k/fpu/libstdc++.a(eh_terminate.o)
 .ARM.extab.text._ZSt9terminatev
                0x001fbf94        0x0 /Users/spinal/devkitPro/devkitARM/bin/../lib/gcc/arm-none-eabi/4.9.2/../../../../arm-none-eabi/lib/armv6k/fpu/libstdc++.a(eh_terminate.o)
 .ARM.extab.text._ZN10__cxxabiv112__unexpectedEPFvvE
                0x001fbf94        0xc /Users/spinal/devkitPro/devkitARM/bin/../lib/gcc/arm-none-eabi/4.9.2/../../../../arm-none-eabi/lib/armv6k/fpu/libstdc++.a(eh_terminate.o)
 .ARM.extab.text._ZSt10unexpectedv
                0x001fbfa0        0xc /Users/spinal/devkitPro/devkitARM/bin/../lib/gcc/arm-none-eabi/4.9.2/../../../../arm-none-eabi/lib/armv6k/fpu/libstdc++.a(eh_terminate.o)
 .ARM.extab.text._ZSt13set_terminatePFvvE
                0x001fbfac        0x0 /Users/spinal/devkitPro/devkitARM/bin/../lib/gcc/arm-none-eabi/4.9.2/../../../../arm-none-eabi/lib/armv6k/fpu/libstdc++.a(eh_terminate.o)
 .ARM.extab.text._ZSt13get_terminatev
                0x001fbfac        0x0 /Users/spinal/devkitPro/devkitARM/bin/../lib/gcc/arm-none-eabi/4.9.2/../../../../arm-none-eabi/lib/armv6k/fpu/libstdc++.a(eh_terminate.o)
 .ARM.extab.text._ZSt14set_unexpectedPFvvE
                0x001fbfac        0x0 /Users/spinal/devkitPro/devkitARM/bin/../lib/gcc/arm-none-eabi/4.9.2/../../../../arm-none-eabi/lib/armv6k/fpu/libstdc++.a(eh_terminate.o)
 .ARM.extab.text._ZSt14get_unexpectedv
                0x001fbfac        0x0 /Users/spinal/devkitPro/devkitARM/bin/../lib/gcc/arm-none-eabi/4.9.2/../../../../arm-none-eabi/lib/armv6k/fpu/libstdc++.a(eh_terminate.o)
 .ARM.extab.text._ZL23__gxx_exception_cleanup19_Unwind_Reason_CodeP21_Unwind_Control_Block
                0x001fbfac        0x0 /Users/spinal/devkitPro/devkitARM/bin/../lib/gcc/arm-none-eabi/4.9.2/../../../../arm-none-eabi/lib/armv6k/fpu/libstdc++.a(eh_throw.o)
 .ARM.extab.text.__cxa_throw
                0x001fbfac        0x0 /Users/spinal/devkitPro/devkitARM/bin/../lib/gcc/arm-none-eabi/4.9.2/../../../../arm-none-eabi/lib/armv6k/fpu/libstdc++.a(eh_throw.o)
 .ARM.extab.text.__cxa_rethrow
                0x001fbfac        0x0 /Users/spinal/devkitPro/devkitARM/bin/../lib/gcc/arm-none-eabi/4.9.2/../../../../arm-none-eabi/lib/armv6k/fpu/libstdc++.a(eh_throw.o)
 .ARM.extab.text._ZSt15set_new_handlerPFvvE
                0x001fbfac        0x0 /Users/spinal/devkitPro/devkitARM/bin/../lib/gcc/arm-none-eabi/4.9.2/../../../../arm-none-eabi/lib/armv6k/fpu/libstdc++.a(new_handler.o)
 .ARM.extab.text._ZSt15get_new_handlerv
                0x001fbfac        0x0 /Users/spinal/devkitPro/devkitARM/bin/../lib/gcc/arm-none-eabi/4.9.2/../../../../arm-none-eabi/lib/armv6k/fpu/libstdc++.a(new_handler.o)
 .ARM.extab.text._ZN9__gnu_cxx27__verbose_terminate_handlerEv
                0x001fbfac       0x34 /Users/spinal/devkitPro/devkitARM/bin/../lib/gcc/arm-none-eabi/4.9.2/../../../../arm-none-eabi/lib/armv6k/fpu/libstdc++.a(vterminate.o)
 .ARM.extab.text.__cxa_current_exception_type
                0x001fbfe0        0x0 /Users/spinal/devkitPro/devkitARM/bin/../lib/gcc/arm-none-eabi/4.9.2/../../../../arm-none-eabi/lib/armv6k/fpu/libstdc++.a(eh_type.o)
                0x001fbfe0                __exidx_start = .

ARM.exidx       0x001fbfe0      0x140
 *(.ARM.exidx* .gnu.linkonce.armexidx.*)
 .ARM.exidx.text._ZdlPv
                0x001fbfe0        0x8 /Users/spinal/devkitPro/devkitARM/bin/../lib/gcc/arm-none-eabi/4.9.2/../../../../arm-none-eabi/lib/armv6k/fpu/libstdc++.a(del_op.o)
 .ARM.exidx.text._ZdaPv
                0x001fbfe8        0x0 /Users/spinal/devkitPro/devkitARM/bin/../lib/gcc/arm-none-eabi/4.9.2/../../../../arm-none-eabi/lib/armv6k/fpu/libstdc++.a(del_opv.o)
                                  0x8 (size before relaxing)
 .ARM.exidx.text.__cxa_guard_acquire
                0x001fbfe8        0x8 /Users/spinal/devkitPro/devkitARM/bin/../lib/gcc/arm-none-eabi/4.9.2/../../../../arm-none-eabi/lib/armv6k/fpu/libstdc++.a(guard.o)
 .ARM.exidx.text.__cxa_guard_abort
                0x001fbff0        0x8 /Users/spinal/devkitPro/devkitARM/bin/../lib/gcc/arm-none-eabi/4.9.2/../../../../arm-none-eabi/lib/armv6k/fpu/libstdc++.a(guard.o)
 .ARM.exidx.text.__cxa_guard_release
                0x001fbff8        0x0 /Users/spinal/devkitPro/devkitARM/bin/../lib/gcc/arm-none-eabi/4.9.2/../../../../arm-none-eabi/lib/armv6k/fpu/libstdc++.a(guard.o)
                                  0x8 (size before relaxing)
 .ARM.exidx.text._ZN9__gnu_cxx20recursive_init_errorD2Ev
                0x001fbff8        0x0 /Users/spinal/devkitPro/devkitARM/bin/../lib/gcc/arm-none-eabi/4.9.2/../../../../arm-none-eabi/lib/armv6k/fpu/libstdc++.a(guard_error.o)
                                  0x8 (size before relaxing)
 .ARM.exidx.text._ZN9__gnu_cxx20recursive_init_errorD0Ev
                0x001fbff8        0x0 /Users/spinal/devkitPro/devkitARM/bin/../lib/gcc/arm-none-eabi/4.9.2/../../../../arm-none-eabi/lib/armv6k/fpu/libstdc++.a(guard_error.o)
                                  0x8 (size before relaxing)
 .ARM.exidx.text._Znwj
                0x001fbff8        0x8 /Users/spinal/devkitPro/devkitARM/bin/../lib/gcc/arm-none-eabi/4.9.2/../../../../arm-none-eabi/lib/armv6k/fpu/libstdc++.a(new_op.o)
 .ARM.exidx.text._Znaj
                0x001fc000        0x8 /Users/spinal/devkitPro/devkitARM/bin/../lib/gcc/arm-none-eabi/4.9.2/../../../../arm-none-eabi/lib/armv6k/fpu/libstdc++.a(new_opv.o)
 .ARM.exidx.text.__cxa_pure_virtual
                0x001fc008        0x8 /Users/spinal/devkitPro/devkitARM/bin/../lib/gcc/arm-none-eabi/4.9.2/../../../../arm-none-eabi/lib/armv6k/fpu/libstdc++.a(pure.o)
 .ARM.exidx.text.__cxa_deleted_virtual
                0x001fc010        0x8 /Users/spinal/devkitPro/devkitARM/bin/../lib/gcc/arm-none-eabi/4.9.2/../../../../arm-none-eabi/lib/armv6k/fpu/libstdc++.a(pure.o)
 .ARM.exidx.text._ZN10__cxxabiv120__si_class_type_infoD2Ev
                0x001fc018        0x8 /Users/spinal/devkitPro/devkitARM/bin/../lib/gcc/arm-none-eabi/4.9.2/../../../../arm-none-eabi/lib/armv6k/fpu/libstdc++.a(si_class_type_info.o)
 .ARM.exidx.text._ZN10__cxxabiv120__si_class_type_infoD0Ev
                0x001fc020        0x0 /Users/spinal/devkitPro/devkitARM/bin/../lib/gcc/arm-none-eabi/4.9.2/../../../../arm-none-eabi/lib/armv6k/fpu/libstdc++.a(si_class_type_info.o)
                                  0x8 (size before relaxing)
 .ARM.exidx.text._ZNK10__cxxabiv120__si_class_type_info20__do_find_public_srcEiPKvPKNS_17__class_type_infoES2_
                0x001fc020        0x8 /Users/spinal/devkitPro/devkitARM/bin/../lib/gcc/arm-none-eabi/4.9.2/../../../../arm-none-eabi/lib/armv6k/fpu/libstdc++.a(si_class_type_info.o)
 .ARM.exidx.text._ZNK10__cxxabiv120__si_class_type_info12__do_dyncastEiNS_17__class_type_info10__sub_kindEPKS1_PKvS4_S6_RNS1_16__dyncast_resultE
                0x001fc028        0x8 /Users/spinal/devkitPro/devkitARM/bin/../lib/gcc/arm-none-eabi/4.9.2/../../../../arm-none-eabi/lib/armv6k/fpu/libstdc++.a(si_class_type_info.o)
 .ARM.exidx.text._ZNK10__cxxabiv120__si_class_type_info11__do_upcastEPKNS_17__class_type_infoEPKvRNS1_15__upcast_resultE
                0x001fc030        0x8 /Users/spinal/devkitPro/devkitARM/bin/../lib/gcc/arm-none-eabi/4.9.2/../../../../arm-none-eabi/lib/armv6k/fpu/libstdc++.a(si_class_type_info.o)
 .ARM.exidx.text._ZNSt9type_infoD2Ev
                0x001fc038        0x8 /Users/spinal/devkitPro/devkitARM/bin/../lib/gcc/arm-none-eabi/4.9.2/../../../../arm-none-eabi/lib/armv6k/fpu/libstdc++.a(tinfo.o)
 .ARM.exidx.text._ZNKSt9type_info14__is_pointer_pEv
                0x001fc040        0x0 /Users/spinal/devkitPro/devkitARM/bin/../lib/gcc/arm-none-eabi/4.9.2/../../../../arm-none-eabi/lib/armv6k/fpu/libstdc++.a(tinfo.o)
                                  0x8 (size before relaxing)
 .ARM.exidx.text._ZNKSt9type_info15__is_function_pEv
                0x001fc040        0x0 /Users/spinal/devkitPro/devkitARM/bin/../lib/gcc/arm-none-eabi/4.9.2/../../../../arm-none-eabi/lib/armv6k/fpu/libstdc++.a(tinfo.o)
                                  0x8 (size before relaxing)
 .ARM.exidx.text._ZNKSt9type_info11__do_upcastEPKN10__cxxabiv117__class_type_infoEPPv
                0x001fc040        0x0 /Users/spinal/devkitPro/devkitARM/bin/../lib/gcc/arm-none-eabi/4.9.2/../../../../arm-none-eabi/lib/armv6k/fpu/libstdc++.a(tinfo.o)
                                  0x8 (size before relaxing)
 .ARM.exidx.text._ZNSt9type_infoD0Ev
                0x001fc040        0x0 /Users/spinal/devkitPro/devkitARM/bin/../lib/gcc/arm-none-eabi/4.9.2/../../../../arm-none-eabi/lib/armv6k/fpu/libstdc++.a(tinfo.o)
                                  0x8 (size before relaxing)
 .ARM.exidx.text._ZNKSt9type_infoeqERKS_
                0x001fc040        0x0 /Users/spinal/devkitPro/devkitARM/bin/../lib/gcc/arm-none-eabi/4.9.2/../../../../arm-none-eabi/lib/armv6k/fpu/libstdc++.a(tinfo.o)
                                  0x8 (size before relaxing)
 .ARM.exidx.text._ZNKSt9type_info10__do_catchEPKS_PPvj
                0x001fc040        0x0 /Users/spinal/devkitPro/devkitARM/bin/../lib/gcc/arm-none-eabi/4.9.2/../../../../arm-none-eabi/lib/armv6k/fpu/libstdc++.a(tinfo.o)
                                  0x8 (size before relaxing)
 .ARM.exidx.text._ZNKSt9bad_alloc4whatEv
                0x001fc040        0x0 /Users/spinal/devkitPro/devkitARM/bin/../lib/gcc/arm-none-eabi/4.9.2/../../../../arm-none-eabi/lib/armv6k/fpu/libstdc++.a(bad_alloc.o)
                                  0x8 (size before relaxing)
 .ARM.exidx.text._ZNSt9bad_allocD2Ev
                0x001fc040        0x0 /Users/spinal/devkitPro/devkitARM/bin/../lib/gcc/arm-none-eabi/4.9.2/../../../../arm-none-eabi/lib/armv6k/fpu/libstdc++.a(bad_alloc.o)
                                  0x8 (size before relaxing)
 .ARM.exidx.text._ZNSt9bad_allocD0Ev
                0x001fc040        0x0 /Users/spinal/devkitPro/devkitARM/bin/../lib/gcc/arm-none-eabi/4.9.2/../../../../arm-none-eabi/lib/armv6k/fpu/libstdc++.a(bad_alloc.o)
                                  0x8 (size before relaxing)
 .ARM.exidx.text._ZNK10__cxxabiv117__class_type_info11__do_upcastEPKS0_PPv
                0x001fc040        0x8 /Users/spinal/devkitPro/devkitARM/bin/../lib/gcc/arm-none-eabi/4.9.2/../../../../arm-none-eabi/lib/armv6k/fpu/libstdc++.a(class_type_info.o)
 .ARM.exidx.text._ZNK10__cxxabiv117__class_type_info20__do_find_public_srcEiPKvPKS0_S2_
                0x001fc048        0x8 /Users/spinal/devkitPro/devkitARM/bin/../lib/gcc/arm-none-eabi/4.9.2/../../../../arm-none-eabi/lib/armv6k/fpu/libstdc++.a(class_type_info.o)
 .ARM.exidx.text._ZN10__cxxabiv117__class_type_infoD2Ev
                0x001fc050        0x8 /Users/spinal/devkitPro/devkitARM/bin/../lib/gcc/arm-none-eabi/4.9.2/../../../../arm-none-eabi/lib/armv6k/fpu/libstdc++.a(class_type_info.o)
 .ARM.exidx.text._ZN10__cxxabiv117__class_type_infoD0Ev
                0x001fc058        0x0 /Users/spinal/devkitPro/devkitARM/bin/../lib/gcc/arm-none-eabi/4.9.2/../../../../arm-none-eabi/lib/armv6k/fpu/libstdc++.a(class_type_info.o)
                                  0x8 (size before relaxing)
 .ARM.exidx.text._ZNK10__cxxabiv117__class_type_info11__do_upcastEPKS0_PKvRNS0_15__upcast_resultE
                0x001fc058        0x8 /Users/spinal/devkitPro/devkitARM/bin/../lib/gcc/arm-none-eabi/4.9.2/../../../../arm-none-eabi/lib/armv6k/fpu/libstdc++.a(class_type_info.o)
 .ARM.exidx.text._ZNK10__cxxabiv117__class_type_info10__do_catchEPKSt9type_infoPPvj
                0x001fc060        0x8 /Users/spinal/devkitPro/devkitARM/bin/../lib/gcc/arm-none-eabi/4.9.2/../../../../arm-none-eabi/lib/armv6k/fpu/libstdc++.a(class_type_info.o)
 .ARM.exidx.text._ZNK10__cxxabiv117__class_type_info12__do_dyncastEiNS0_10__sub_kindEPKS0_PKvS3_S5_RNS0_16__dyncast_resultE
                0x001fc068        0x8 /Users/spinal/devkitPro/devkitARM/bin/../lib/gcc/arm-none-eabi/4.9.2/../../../../arm-none-eabi/lib/armv6k/fpu/libstdc++.a(class_type_info.o)
 .ARM.exidx.text.__cxa_allocate_exception
                0x001fc070        0x8 /Users/spinal/devkitPro/devkitARM/bin/../lib/gcc/arm-none-eabi/4.9.2/../../../../arm-none-eabi/lib/armv6k/fpu/libstdc++.a(eh_alloc.o)
 .ARM.exidx.text.__cxa_free_exception
                0x001fc078        0x0 /Users/spinal/devkitPro/devkitARM/bin/../lib/gcc/arm-none-eabi/4.9.2/../../../../arm-none-eabi/lib/armv6k/fpu/libstdc++.a(eh_alloc.o)
                                  0x8 (size before relaxing)
 .ARM.exidx.text.__cxa_allocate_dependent_exception
                0x001fc078        0x0 /Users/spinal/devkitPro/devkitARM/bin/../lib/gcc/arm-none-eabi/4.9.2/../../../../arm-none-eabi/lib/armv6k/fpu/libstdc++.a(eh_alloc.o)
                                  0x8 (size before relaxing)
 .ARM.exidx.text.__cxa_free_dependent_exception
                0x001fc078        0x0 /Users/spinal/devkitPro/devkitARM/bin/../lib/gcc/arm-none-eabi/4.9.2/../../../../arm-none-eabi/lib/armv6k/fpu/libstdc++.a(eh_alloc.o)
                                  0x8 (size before relaxing)
 .ARM.exidx.text.__cxa_type_match
                0x001fc078        0x8 /Users/spinal/devkitPro/devkitARM/bin/../lib/gcc/arm-none-eabi/4.9.2/../../../../arm-none-eabi/lib/armv6k/fpu/libstdc++.a(eh_arm.o)
 .ARM.exidx.text.__cxa_begin_cleanup
                0x001fc080        0x8 /Users/spinal/devkitPro/devkitARM/bin/../lib/gcc/arm-none-eabi/4.9.2/../../../../arm-none-eabi/lib/armv6k/fpu/libstdc++.a(eh_arm.o)
 .ARM.exidx.text.__gnu_end_cleanup
                0x001fc088        0x0 /Users/spinal/devkitPro/devkitARM/bin/../lib/gcc/arm-none-eabi/4.9.2/../../../../arm-none-eabi/lib/armv6k/fpu/libstdc++.a(eh_arm.o)
                                  0x8 (size before relaxing)
 .ARM.exidx.text._ZN10__cxxabiv1L24__is_gxx_exception_classEPc
                0x001fc088        0x0 /Users/spinal/devkitPro/devkitARM/bin/../lib/gcc/arm-none-eabi/4.9.2/../../../../arm-none-eabi/lib/armv6k/fpu/libstdc++.a(eh_call.o)
                                  0x8 (size before relaxing)
 .ARM.exidx.text.__cxa_call_terminate
                0x001fc088        0x0 /Users/spinal/devkitPro/devkitARM/bin/../lib/gcc/arm-none-eabi/4.9.2/../../../../arm-none-eabi/lib/armv6k/fpu/libstdc++.a(eh_call.o)
                                  0x8 (size before relaxing)
 .ARM.exidx.text.__cxa_call_unexpected
                0x001fc088        0x8 /Users/spinal/devkitPro/devkitARM/bin/../lib/gcc/arm-none-eabi/4.9.2/../../../../arm-none-eabi/lib/armv6k/fpu/libstdc++.a(eh_call.o)
 .ARM.exidx.text.__cxa_get_exception_ptr
                0x001fc090        0x8 /Users/spinal/devkitPro/devkitARM/bin/../lib/gcc/arm-none-eabi/4.9.2/../../../../arm-none-eabi/lib/armv6k/fpu/libstdc++.a(eh_catch.o)
 .ARM.exidx.text.__cxa_begin_catch
                0x001fc098        0x8 /Users/spinal/devkitPro/devkitARM/bin/../lib/gcc/arm-none-eabi/4.9.2/../../../../arm-none-eabi/lib/armv6k/fpu/libstdc++.a(eh_catch.o)
 .ARM.exidx.text.__cxa_end_catch
                0x001fc0a0        0x8 /Users/spinal/devkitPro/devkitARM/bin/../lib/gcc/arm-none-eabi/4.9.2/../../../../arm-none-eabi/lib/armv6k/fpu/libstdc++.a(eh_catch.o)
 .ARM.exidx.text._ZSt18uncaught_exceptionv
                0x001fc0a8        0x0 /Users/spinal/devkitPro/devkitARM/bin/../lib/gcc/arm-none-eabi/4.9.2/../../../../arm-none-eabi/lib/armv6k/fpu/libstdc++.a(eh_catch.o)
                                  0x8 (size before relaxing)
 .ARM.exidx.text._ZNSt9exceptionD2Ev
                0x001fc0a8        0x0 /Users/spinal/devkitPro/devkitARM/bin/../lib/gcc/arm-none-eabi/4.9.2/../../../../arm-none-eabi/lib/armv6k/fpu/libstdc++.a(eh_exception.o)
                                  0x8 (size before relaxing)
 .ARM.exidx.text._ZNSt13bad_exceptionD2Ev
                0x001fc0a8        0x0 /Users/spinal/devkitPro/devkitARM/bin/../lib/gcc/arm-none-eabi/4.9.2/../../../../arm-none-eabi/lib/armv6k/fpu/libstdc++.a(eh_exception.o)
                                  0x8 (size before relaxing)
 .ARM.exidx.text._ZNKSt9exception4whatEv
                0x001fc0a8        0x0 /Users/spinal/devkitPro/devkitARM/bin/../lib/gcc/arm-none-eabi/4.9.2/../../../../arm-none-eabi/lib/armv6k/fpu/libstdc++.a(eh_exception.o)
                                  0x8 (size before relaxing)
 .ARM.exidx.text._ZNKSt13bad_exception4whatEv
                0x001fc0a8        0x0 /Users/spinal/devkitPro/devkitARM/bin/../lib/gcc/arm-none-eabi/4.9.2/../../../../arm-none-eabi/lib/armv6k/fpu/libstdc++.a(eh_exception.o)
                                  0x8 (size before relaxing)
 .ARM.exidx.text._ZNSt9exceptionD0Ev
                0x001fc0a8        0x0 /Users/spinal/devkitPro/devkitARM/bin/../lib/gcc/arm-none-eabi/4.9.2/../../../../arm-none-eabi/lib/armv6k/fpu/libstdc++.a(eh_exception.o)
                                  0x8 (size before relaxing)
 .ARM.exidx.text._ZNSt13bad_exceptionD0Ev
                0x001fc0a8        0x0 /Users/spinal/devkitPro/devkitARM/bin/../lib/gcc/arm-none-eabi/4.9.2/../../../../arm-none-eabi/lib/armv6k/fpu/libstdc++.a(eh_exception.o)
                                  0x8 (size before relaxing)
 .ARM.exidx.text._ZN10__cxxabiv115__forced_unwindD2Ev
                0x001fc0a8        0x0 /Users/spinal/devkitPro/devkitARM/bin/../lib/gcc/arm-none-eabi/4.9.2/../../../../arm-none-eabi/lib/armv6k/fpu/libstdc++.a(eh_exception.o)
                                  0x8 (size before relaxing)
 .ARM.exidx.text._ZN10__cxxabiv115__forced_unwindD0Ev
                0x001fc0a8        0x0 /Users/spinal/devkitPro/devkitARM/bin/../lib/gcc/arm-none-eabi/4.9.2/../../../../arm-none-eabi/lib/armv6k/fpu/libstdc++.a(eh_exception.o)
                                  0x8 (size before relaxing)
 .ARM.exidx.text._ZN10__cxxabiv119__foreign_exceptionD2Ev
                0x001fc0a8        0x0 /Users/spinal/devkitPro/devkitARM/bin/../lib/gcc/arm-none-eabi/4.9.2/../../../../arm-none-eabi/lib/armv6k/fpu/libstdc++.a(eh_exception.o)
                                  0x8 (size before relaxing)
 .ARM.exidx.text._ZN10__cxxabiv119__foreign_exceptionD0Ev
                0x001fc0a8        0x0 /Users/spinal/devkitPro/devkitARM/bin/../lib/gcc/arm-none-eabi/4.9.2/../../../../arm-none-eabi/lib/armv6k/fpu/libstdc++.a(eh_exception.o)
                                  0x8 (size before relaxing)
 .ARM.exidx.text.__cxa_get_globals_fast
                0x001fc0a8        0x0 /Users/spinal/devkitPro/devkitARM/bin/../lib/gcc/arm-none-eabi/4.9.2/../../../../arm-none-eabi/lib/armv6k/fpu/libstdc++.a(eh_globals.o)
                                  0x8 (size before relaxing)
 .ARM.exidx.text.__cxa_get_globals
                0x001fc0a8        0x0 /Users/spinal/devkitPro/devkitARM/bin/../lib/gcc/arm-none-eabi/4.9.2/../../../../arm-none-eabi/lib/armv6k/fpu/libstdc++.a(eh_globals.o)
                                  0x8 (size before relaxing)
 .ARM.exidx.text._ZL12read_sleb128PKhPl
                0x001fc0a8        0x0 /Users/spinal/devkitPro/devkitARM/bin/../lib/gcc/arm-none-eabi/4.9.2/../../../../arm-none-eabi/lib/armv6k/fpu/libstdc++.a(eh_personality.o)
                                  0x8 (size before relaxing)
 .ARM.exidx.text._ZL28read_encoded_value_with_basehjPKhPj
                0x001fc0a8        0x8 /Users/spinal/devkitPro/devkitARM/bin/../lib/gcc/arm-none-eabi/4.9.2/../../../../arm-none-eabi/lib/armv6k/fpu/libstdc++.a(eh_personality.o)
 .ARM.exidx.text._ZL21base_of_encoded_valuehP15_Unwind_Context
                0x001fc0b0        0x8 /Users/spinal/devkitPro/devkitARM/bin/../lib/gcc/arm-none-eabi/4.9.2/../../../../arm-none-eabi/lib/armv6k/fpu/libstdc++.a(eh_personality.o)
 .ARM.exidx.text._ZL17parse_lsda_headerP15_Unwind_ContextPKhP16lsda_header_info
                0x001fc0b8        0x8 /Users/spinal/devkitPro/devkitARM/bin/../lib/gcc/arm-none-eabi/4.9.2/../../../../arm-none-eabi/lib/armv6k/fpu/libstdc++.a(eh_personality.o)
 .ARM.exidx.text.__gxx_personality_v0
                0x001fc0c0        0x8 /Users/spinal/devkitPro/devkitARM/bin/../lib/gcc/arm-none-eabi/4.9.2/../../../../arm-none-eabi/lib/armv6k/fpu/libstdc++.a(eh_personality.o)
 .ARM.exidx.text._ZN10__cxxabiv111__terminateEPFvvE
                0x001fc0c8        0x8 /Users/spinal/devkitPro/devkitARM/bin/../lib/gcc/arm-none-eabi/4.9.2/../../../../arm-none-eabi/lib/armv6k/fpu/libstdc++.a(eh_terminate.o)
 .ARM.exidx.text._ZSt9terminatev
                0x001fc0d0        0x8 /Users/spinal/devkitPro/devkitARM/bin/../lib/gcc/arm-none-eabi/4.9.2/../../../../arm-none-eabi/lib/armv6k/fpu/libstdc++.a(eh_terminate.o)
 .ARM.exidx.text._ZN10__cxxabiv112__unexpectedEPFvvE
                0x001fc0d8        0x8 /Users/spinal/devkitPro/devkitARM/bin/../lib/gcc/arm-none-eabi/4.9.2/../../../../arm-none-eabi/lib/armv6k/fpu/libstdc++.a(eh_terminate.o)
 .ARM.exidx.text._ZSt10unexpectedv
                0x001fc0e0        0x8 /Users/spinal/devkitPro/devkitARM/bin/../lib/gcc/arm-none-eabi/4.9.2/../../../../arm-none-eabi/lib/armv6k/fpu/libstdc++.a(eh_terminate.o)
 .ARM.exidx.text._ZSt13set_terminatePFvvE
                0x001fc0e8        0x8 /Users/spinal/devkitPro/devkitARM/bin/../lib/gcc/arm-none-eabi/4.9.2/../../../../arm-none-eabi/lib/armv6k/fpu/libstdc++.a(eh_terminate.o)
 .ARM.exidx.text._ZSt13get_terminatev
                0x001fc0f0        0x0 /Users/spinal/devkitPro/devkitARM/bin/../lib/gcc/arm-none-eabi/4.9.2/../../../../arm-none-eabi/lib/armv6k/fpu/libstdc++.a(eh_terminate.o)
                                  0x8 (size before relaxing)
 .ARM.exidx.text._ZSt14set_unexpectedPFvvE
                0x001fc0f0        0x0 /Users/spinal/devkitPro/devkitARM/bin/../lib/gcc/arm-none-eabi/4.9.2/../../../../arm-none-eabi/lib/armv6k/fpu/libstdc++.a(eh_terminate.o)
                                  0x8 (size before relaxing)
 .ARM.exidx.text._ZSt14get_unexpectedv
                0x001fc0f0        0x0 /Users/spinal/devkitPro/devkitARM/bin/../lib/gcc/arm-none-eabi/4.9.2/../../../../arm-none-eabi/lib/armv6k/fpu/libstdc++.a(eh_terminate.o)
                                  0x8 (size before relaxing)
 .ARM.exidx.text._ZL23__gxx_exception_cleanup19_Unwind_Reason_CodeP21_Unwind_Control_Block
                0x001fc0f0        0x8 /Users/spinal/devkitPro/devkitARM/bin/../lib/gcc/arm-none-eabi/4.9.2/../../../../arm-none-eabi/lib/armv6k/fpu/libstdc++.a(eh_throw.o)
 .ARM.exidx.text.__cxa_throw
                0x001fc0f8        0x8 /Users/spinal/devkitPro/devkitARM/bin/../lib/gcc/arm-none-eabi/4.9.2/../../../../arm-none-eabi/lib/armv6k/fpu/libstdc++.a(eh_throw.o)
 .ARM.exidx.text.__cxa_rethrow
                0x001fc100        0x8 /Users/spinal/devkitPro/devkitARM/bin/../lib/gcc/arm-none-eabi/4.9.2/../../../../arm-none-eabi/lib/armv6k/fpu/libstdc++.a(eh_throw.o)
 .ARM.exidx.text._ZSt15set_new_handlerPFvvE
                0x001fc108        0x8 /Users/spinal/devkitPro/devkitARM/bin/../lib/gcc/arm-none-eabi/4.9.2/../../../../arm-none-eabi/lib/armv6k/fpu/libstdc++.a(new_handler.o)
 .ARM.exidx.text._ZSt15get_new_handlerv
                0x001fc110        0x0 /Users/spinal/devkitPro/devkitARM/bin/../lib/gcc/arm-none-eabi/4.9.2/../../../../arm-none-eabi/lib/armv6k/fpu/libstdc++.a(new_handler.o)
                                  0x8 (size before relaxing)
 .ARM.exidx.text._ZN9__gnu_cxx27__verbose_terminate_handlerEv
                0x001fc110        0x8 /Users/spinal/devkitPro/devkitARM/bin/../lib/gcc/arm-none-eabi/4.9.2/../../../../arm-none-eabi/lib/armv6k/fpu/libstdc++.a(vterminate.o)
 .ARM.exidx.text.__cxa_current_exception_type
                0x001fc118        0x8 /Users/spinal/devkitPro/devkitARM/bin/../lib/gcc/arm-none-eabi/4.9.2/../../../../arm-none-eabi/lib/armv6k/fpu/libstdc++.a(eh_type.o)
                0x001fc120                __exidx_end = .

.rel.dyn        0x001fc120        0x0
 .rel.iplt      0x001fc120        0x0 /Users/spinal/devkitPro/devkitARM/bin/../lib/gcc/arm-none-eabi/4.9.2/../../../../arm-none-eabi/lib/armv6k/fpu/3dsx_crt0.o

.data           0x001fd000     0x4ae8
 *(.data)
 .data          0x001fd000        0x0 /Users/spinal/devkitPro/devkitARM/bin/../lib/gcc/arm-none-eabi/4.9.2/../../../../arm-none-eabi/lib/armv6k/fpu/3dsx_crt0.o
 .data          0x001fd000        0x0 /Users/spinal/devkitPro/devkitARM/bin/../lib/gcc/arm-none-eabi/4.9.2/armv6k/fpu/crti.o
 .data          0x001fd000        0x4 /Users/spinal/devkitPro/devkitARM/bin/../lib/gcc/arm-none-eabi/4.9.2/armv6k/fpu/crtbegin.o
                0x001fd000                __dso_handle
 .data          0x001fd004        0x0 1541.ROM.bin.o
 .data          0x001fd004        0x0 BASIC.ROM.bin.o
 .data          0x001fd004        0x0 C64_Keyboard.bin.o
 .data          0x001fd004        0x0 CHAR.ROM.bin.o
 .data          0x001fd004        0x0 KERNAL.ROM.bin.o
 .data          0x001fd004        0x0 myfont.bin.o
 .data          0x001fd004        0x0 myfont1.bin.o
 .data          0x001fd004        0x0 1541d64.o
 .data          0x001fd004        0x0 1541job.o
 .data          0x001fd004        0x0 1541t64.o
 .data          0x001fd004        0x4 C64.o
                0x001fd004                current_joystick
 .data          0x001fd008        0x0 CIA.o
 .data          0x001fd008        0x0 CPU1541.o
 .data          0x001fd008        0x0 CPUC64.o
 .data          0x001fd008        0x0 CPU_common.o
 .data          0x001fd008      0x310 Display.o
                0x001fd008                fontWidth
                0x001fd188                font1Width
                0x001fd308                bmpsize
                0x001fd30c                c64_key
                0x001fd310                lastc64key
                0x001fd314                choosingfile
 .data          0x001fd318        0x0 IEC.o
 .data          0x001fd318        0x0 Prefs.o
 .data          0x001fd318        0x0 REU.o
 .data          0x001fd318        0x0 SAM.o
 .data          0x001fd318        0x4 SID.o
 .data          0x001fd31c      0x400 VIC.o
                0x001fd31c                MultiExpTable
                0x001fd51c                ExpTable
 .data          0x001fd71c        0x0 file.o
 .data          0x001fd71c      0x900 main.o
                0x001fd71c                Frodo::prefs_path
                0x001fd81c                costable
 .data          0x001fe01c        0x0 sound9.o
 .data          0x001fe01c        0xc /Users/spinal/devkitPro/libctru/lib/libctru.a(gfx.o)
 .data          0x001fe028        0x0 /Users/spinal/devkitPro/libctru/lib/libctru.a(srv.o)
 .data          0x001fe028        0x0 /Users/spinal/devkitPro/libctru/lib/libctru.a(apt.o)
 .data          0x001fe028        0x0 /Users/spinal/devkitPro/libctru/lib/libctru.a(fs.o)
 .data          0x001fe028        0x0 /Users/spinal/devkitPro/libctru/lib/libctru.a(gsp.o)
 .data          0x001fe028        0x0 /Users/spinal/devkitPro/libctru/lib/libctru.a(gx.o)
 .data          0x001fe028        0x0 /Users/spinal/devkitPro/libctru/lib/libctru.a(hid.o)
 .data          0x001fe028        0x0 /Users/spinal/devkitPro/libctru/lib/libctru.a(irrst.o)
 .data          0x001fe028        0x0 /Users/spinal/devkitPro/libctru/lib/libctru.a(initArgv.o)
 .data          0x001fe028        0x0 /Users/spinal/devkitPro/libctru/lib/libctru.a(initSystem.o)
 .data          0x001fe028        0x0 /Users/spinal/devkitPro/libctru/lib/libctru.a(svc.o)
 .data          0x001fe028        0x4 /Users/spinal/devkitPro/libctru/lib/libctru.a(stack_adjust.o)
                0x001fe028                __stacksize__
 .data          0x001fe02c        0x0 /Users/spinal/devkitPro/libctru/lib/libctru.a(linear.o)
 .data          0x001fe02c        0x0 /Users/spinal/devkitPro/libctru/lib/libctru.a(mem_pool.o)
 .data          0x001fe02c        0x0 /Users/spinal/devkitPro/libctru/lib/libctru.a(vram.o)
 .data          0x001fe02c        0x0 /Users/spinal/devkitPro/libctru/lib/libctru.a(os.o)
 .data          0x001fe02c        0x0 /Users/spinal/devkitPro/libctru/lib/libctru.a(rbtree_find.o)
 .data          0x001fe02c        0x0 /Users/spinal/devkitPro/libctru/lib/libctru.a(rbtree_init.o)
 .data          0x001fe02c        0x0 /Users/spinal/devkitPro/libctru/lib/libctru.a(rbtree_insert.o)
 .data          0x001fe02c        0x0 /Users/spinal/devkitPro/libctru/lib/libctru.a(rbtree_remove.o)
 .data          0x001fe02c        0x0 /Users/spinal/devkitPro/libctru/lib/libctru.a(rbtree_rotate.o)
 .data          0x001fe02c        0x0 /Users/spinal/devkitPro/libctru/lib/libctru.a(allocateHeaps.o)
 .data          0x001fe02c        0x0 /Users/spinal/devkitPro/libctru/lib/libctru.a(appExit.o)
 .data          0x001fe02c        0x0 /Users/spinal/devkitPro/libctru/lib/libctru.a(appInit.o)
 .data          0x001fe02c        0x0 /Users/spinal/devkitPro/libctru/lib/libctru.a(ctru_exit.o)
 .data          0x001fe02c     0x1084 /Users/spinal/devkitPro/libctru/lib/libctru.a(sdmc_dev.o)
 .data          0x001ff0b0        0x0 /Users/spinal/devkitPro/libctru/lib/libctru.a(rbtree_iterator.o)
 .data          0x001ff0b0        0x0 /Users/spinal/devkitPro/libctru/lib/libctru.a(decode_utf8.o)
 .data          0x001ff0b0        0x0 /Users/spinal/devkitPro/libctru/lib/libctru.a(utf16_to_utf8.o)
 .data          0x001ff0b0        0x0 /Users/spinal/devkitPro/libctru/lib/libctru.a(utf8_to_utf16.o)
 .data          0x001ff0b0        0x0 /Users/spinal/devkitPro/libctru/lib/libctru.a(decode_utf16.o)
 .data          0x001ff0b0        0x0 /Users/spinal/devkitPro/libctru/lib/libctru.a(encode_utf16.o)
 .data          0x001ff0b0        0x0 /Users/spinal/devkitPro/libctru/lib/libctru.a(encode_utf8.o)
 .data          0x001ff0b0        0x0 /Users/spinal/devkitPro/devkitARM/bin/../lib/gcc/arm-none-eabi/4.9.2/../../../../arm-none-eabi/lib/armv6k/fpu/libstdc++.a(del_op.o)
 .data          0x001ff0b0        0x0 /Users/spinal/devkitPro/devkitARM/bin/../lib/gcc/arm-none-eabi/4.9.2/../../../../arm-none-eabi/lib/armv6k/fpu/libstdc++.a(del_opv.o)
 .data          0x001ff0b0        0x0 /Users/spinal/devkitPro/devkitARM/bin/../lib/gcc/arm-none-eabi/4.9.2/../../../../arm-none-eabi/lib/armv6k/fpu/libstdc++.a(guard.o)
 .data          0x001ff0b0        0x0 /Users/spinal/devkitPro/devkitARM/bin/../lib/gcc/arm-none-eabi/4.9.2/../../../../arm-none-eabi/lib/armv6k/fpu/libstdc++.a(guard_error.o)
 .data          0x001ff0b0        0x0 /Users/spinal/devkitPro/devkitARM/bin/../lib/gcc/arm-none-eabi/4.9.2/../../../../arm-none-eabi/lib/armv6k/fpu/libstdc++.a(new_op.o)
 .data          0x001ff0b0        0x0 /Users/spinal/devkitPro/devkitARM/bin/../lib/gcc/arm-none-eabi/4.9.2/../../../../arm-none-eabi/lib/armv6k/fpu/libstdc++.a(new_opv.o)
 .data          0x001ff0b0        0x0 /Users/spinal/devkitPro/devkitARM/bin/../lib/gcc/arm-none-eabi/4.9.2/../../../../arm-none-eabi/lib/armv6k/fpu/libstdc++.a(pure.o)
 .data          0x001ff0b0        0x0 /Users/spinal/devkitPro/devkitARM/bin/../lib/gcc/arm-none-eabi/4.9.2/../../../../arm-none-eabi/lib/armv6k/fpu/libstdc++.a(si_class_type_info.o)
 .data          0x001ff0b0        0x0 /Users/spinal/devkitPro/devkitARM/bin/../lib/gcc/arm-none-eabi/4.9.2/../../../../arm-none-eabi/lib/armv6k/fpu/libstdc++.a(tinfo.o)
 .data          0x001ff0b0        0x0 /Users/spinal/devkitPro/devkitARM/bin/../lib/gcc/arm-none-eabi/4.9.2/../../../../arm-none-eabi/lib/armv6k/fpu/libstdc++.a(bad_alloc.o)
 .data          0x001ff0b0        0x0 /Users/spinal/devkitPro/devkitARM/bin/../lib/gcc/arm-none-eabi/4.9.2/../../../../arm-none-eabi/lib/armv6k/fpu/libstdc++.a(class_type_info.o)
 .data          0x001ff0b0        0x0 /Users/spinal/devkitPro/devkitARM/bin/../lib/gcc/arm-none-eabi/4.9.2/../../../../arm-none-eabi/lib/armv6k/fpu/libstdc++.a(eh_alloc.o)
 .data          0x001ff0b0        0x0 /Users/spinal/devkitPro/devkitARM/bin/../lib/gcc/arm-none-eabi/4.9.2/../../../../arm-none-eabi/lib/armv6k/fpu/libstdc++.a(eh_arm.o)
 .data          0x001ff0b0        0x0 /Users/spinal/devkitPro/devkitARM/bin/../lib/gcc/arm-none-eabi/4.9.2/../../../../arm-none-eabi/lib/armv6k/fpu/libstdc++.a(eh_call.o)
 .data          0x001ff0b0        0x0 /Users/spinal/devkitPro/devkitARM/bin/../lib/gcc/arm-none-eabi/4.9.2/../../../../arm-none-eabi/lib/armv6k/fpu/libstdc++.a(eh_catch.o)
 .data          0x001ff0b0        0x0 /Users/spinal/devkitPro/devkitARM/bin/../lib/gcc/arm-none-eabi/4.9.2/../../../../arm-none-eabi/lib/armv6k/fpu/libstdc++.a(eh_exception.o)
 .data          0x001ff0b0        0x0 /Users/spinal/devkitPro/devkitARM/bin/../lib/gcc/arm-none-eabi/4.9.2/../../../../arm-none-eabi/lib/armv6k/fpu/libstdc++.a(eh_globals.o)
 .data          0x001ff0b0        0x0 /Users/spinal/devkitPro/devkitARM/bin/../lib/gcc/arm-none-eabi/4.9.2/../../../../arm-none-eabi/lib/armv6k/fpu/libstdc++.a(eh_personality.o)
 .data          0x001ff0b0        0x0 /Users/spinal/devkitPro/devkitARM/bin/../lib/gcc/arm-none-eabi/4.9.2/../../../../arm-none-eabi/lib/armv6k/fpu/libstdc++.a(eh_terminate.o)
 .data          0x001ff0b0        0x0 /Users/spinal/devkitPro/devkitARM/bin/../lib/gcc/arm-none-eabi/4.9.2/../../../../arm-none-eabi/lib/armv6k/fpu/libstdc++.a(eh_throw.o)
 .data          0x001ff0b0        0x0 /Users/spinal/devkitPro/devkitARM/bin/../lib/gcc/arm-none-eabi/4.9.2/../../../../arm-none-eabi/lib/armv6k/fpu/libstdc++.a(eh_unex_handler.o)
 .data          0x001ff0b0        0x0 /Users/spinal/devkitPro/devkitARM/bin/../lib/gcc/arm-none-eabi/4.9.2/../../../../arm-none-eabi/lib/armv6k/fpu/libstdc++.a(new_handler.o)
 .data          0x001ff0b0        0x0 /Users/spinal/devkitPro/devkitARM/bin/../lib/gcc/arm-none-eabi/4.9.2/../../../../arm-none-eabi/lib/armv6k/fpu/libstdc++.a(eh_term_handler.o)
 .data          0x001ff0b0        0x0 /Users/spinal/devkitPro/devkitARM/bin/../lib/gcc/arm-none-eabi/4.9.2/../../../../arm-none-eabi/lib/armv6k/fpu/libstdc++.a(vterminate.o)
 .data          0x001ff0b0        0x0 /Users/spinal/devkitPro/devkitARM/bin/../lib/gcc/arm-none-eabi/4.9.2/../../../../arm-none-eabi/lib/armv6k/fpu/libstdc++.a(cp-demangle.o)
 .data          0x001ff0b0        0x0 /Users/spinal/devkitPro/devkitARM/bin/../lib/gcc/arm-none-eabi/4.9.2/../../../../arm-none-eabi/lib/armv6k/fpu/libstdc++.a(eh_type.o)
 .data          0x001ff0b0        0x0 /Users/spinal/devkitPro/devkitARM/bin/../lib/gcc/arm-none-eabi/4.9.2/../../../../arm-none-eabi/lib/armv6k/fpu/libm.a(lib_a-s_cos.o)
 .data          0x001ff0b0        0x0 /Users/spinal/devkitPro/devkitARM/bin/../lib/gcc/arm-none-eabi/4.9.2/../../../../arm-none-eabi/lib/armv6k/fpu/libm.a(lib_a-s_sin.o)
 .data          0x001ff0b0        0x0 /Users/spinal/devkitPro/devkitARM/bin/../lib/gcc/arm-none-eabi/4.9.2/../../../../arm-none-eabi/lib/armv6k/fpu/libm.a(lib_a-e_rem_pio2.o)
 .data          0x001ff0b0        0x0 /Users/spinal/devkitPro/devkitARM/bin/../lib/gcc/arm-none-eabi/4.9.2/../../../../arm-none-eabi/lib/armv6k/fpu/libm.a(lib_a-k_cos.o)
 .data          0x001ff0b0        0x0 /Users/spinal/devkitPro/devkitARM/bin/../lib/gcc/arm-none-eabi/4.9.2/../../../../arm-none-eabi/lib/armv6k/fpu/libm.a(lib_a-k_rem_pio2.o)
 .data          0x001ff0b0        0x0 /Users/spinal/devkitPro/devkitARM/bin/../lib/gcc/arm-none-eabi/4.9.2/../../../../arm-none-eabi/lib/armv6k/fpu/libm.a(lib_a-k_sin.o)
 .data          0x001ff0b0        0x0 /Users/spinal/devkitPro/devkitARM/bin/../lib/gcc/arm-none-eabi/4.9.2/../../../../arm-none-eabi/lib/armv6k/fpu/libm.a(lib_a-s_fabs.o)
 .data          0x001ff0b0        0x0 /Users/spinal/devkitPro/devkitARM/bin/../lib/gcc/arm-none-eabi/4.9.2/../../../../arm-none-eabi/lib/armv6k/fpu/libm.a(lib_a-s_floor.o)
 .data          0x001ff0b0        0x0 /Users/spinal/devkitPro/devkitARM/bin/../lib/gcc/arm-none-eabi/4.9.2/../../../../arm-none-eabi/lib/armv6k/fpu/libm.a(lib_a-s_scalbn.o)
 .data          0x001ff0b0        0x0 /Users/spinal/devkitPro/devkitARM/bin/../lib/gcc/arm-none-eabi/4.9.2/../../../../arm-none-eabi/lib/armv6k/fpu/libm.a(lib_a-s_copysign.o)
 .data          0x001ff0b0        0x0 /Users/spinal/devkitPro/devkitARM/bin/../lib/gcc/arm-none-eabi/4.9.2/armv6k/fpu/libgcc.a(_udivsi3.o)
 .data          0x001ff0b0        0x0 /Users/spinal/devkitPro/devkitARM/bin/../lib/gcc/arm-none-eabi/4.9.2/armv6k/fpu/libgcc.a(_dvmd_tls.o)
 .data          0x001ff0b0        0x0 /Users/spinal/devkitPro/devkitARM/bin/../lib/gcc/arm-none-eabi/4.9.2/armv6k/fpu/libgcc.a(unwind-arm.o)
 .data          0x001ff0b0        0x0 /Users/spinal/devkitPro/devkitARM/bin/../lib/gcc/arm-none-eabi/4.9.2/armv6k/fpu/libgcc.a(libunwind.o)
 .data          0x001ff0b0        0x0 /Users/spinal/devkitPro/devkitARM/bin/../lib/gcc/arm-none-eabi/4.9.2/armv6k/fpu/libgcc.a(pr-support.o)
 .data          0x001ff0b0        0x0 /Users/spinal/devkitPro/devkitARM/bin/../lib/gcc/arm-none-eabi/4.9.2/../../../../arm-none-eabi/lib/armv6k/fpu/libg.a(lib_a-abort.o)
 .data          0x001ff0b0        0x0 /Users/spinal/devkitPro/devkitARM/bin/../lib/gcc/arm-none-eabi/4.9.2/../../../../arm-none-eabi/lib/armv6k/fpu/libg.a(lib_a-atoi.o)
 .data          0x001ff0b0        0x0 /Users/spinal/devkitPro/devkitARM/bin/../lib/gcc/arm-none-eabi/4.9.2/../../../../arm-none-eabi/lib/armv6k/fpu/libg.a(lib_a-bsearch.o)
 .data          0x001ff0b0        0x0 /Users/spinal/devkitPro/devkitARM/bin/../lib/gcc/arm-none-eabi/4.9.2/../../../../arm-none-eabi/lib/armv6k/fpu/libg.a(lib_a-fclose.o)
 .data          0x001ff0b0        0x0 /Users/spinal/devkitPro/devkitARM/bin/../lib/gcc/arm-none-eabi/4.9.2/../../../../arm-none-eabi/lib/armv6k/fpu/libg.a(lib_a-fflush.o)
 .data          0x001ff0b0        0x0 /Users/spinal/devkitPro/devkitARM/bin/../lib/gcc/arm-none-eabi/4.9.2/../../../../arm-none-eabi/lib/armv6k/fpu/libg.a(lib_a-fgetc.o)
 .data          0x001ff0b0        0x0 /Users/spinal/devkitPro/devkitARM/bin/../lib/gcc/arm-none-eabi/4.9.2/../../../../arm-none-eabi/lib/armv6k/fpu/libg.a(lib_a-fgets.o)
 .data          0x001ff0b0        0x0 /Users/spinal/devkitPro/devkitARM/bin/../lib/gcc/arm-none-eabi/4.9.2/../../../../arm-none-eabi/lib/armv6k/fpu/libg.a(lib_a-findfp.o)
 .data          0x001ff0b0        0x0 /Users/spinal/devkitPro/devkitARM/bin/../lib/gcc/arm-none-eabi/4.9.2/../../../../arm-none-eabi/lib/armv6k/fpu/libg.a(lib_a-fini.o)
 .data          0x001ff0b0        0x0 /Users/spinal/devkitPro/devkitARM/bin/../lib/gcc/arm-none-eabi/4.9.2/../../../../arm-none-eabi/lib/armv6k/fpu/libg.a(lib_a-fopen.o)
 .data          0x001ff0b0        0x0 /Users/spinal/devkitPro/devkitARM/bin/../lib/gcc/arm-none-eabi/4.9.2/../../../../arm-none-eabi/lib/armv6k/fpu/libg.a(lib_a-fprintf.o)
 .data          0x001ff0b0        0x0 /Users/spinal/devkitPro/devkitARM/bin/../lib/gcc/arm-none-eabi/4.9.2/../../../../arm-none-eabi/lib/armv6k/fpu/libg.a(lib_a-fputc.o)
 .data          0x001ff0b0        0x0 /Users/spinal/devkitPro/devkitARM/bin/../lib/gcc/arm-none-eabi/4.9.2/../../../../arm-none-eabi/lib/armv6k/fpu/libg.a(lib_a-fputs.o)
 .data          0x001ff0b0        0x0 /Users/spinal/devkitPro/devkitARM/bin/../lib/gcc/arm-none-eabi/4.9.2/../../../../arm-none-eabi/lib/armv6k/fpu/libg.a(lib_a-fread.o)
 .data          0x001ff0b0        0x0 /Users/spinal/devkitPro/devkitARM/bin/../lib/gcc/arm-none-eabi/4.9.2/../../../../arm-none-eabi/lib/armv6k/fpu/libg.a(lib_a-freer.o)
 .data          0x001ff0b0        0x0 /Users/spinal/devkitPro/devkitARM/bin/../lib/gcc/arm-none-eabi/4.9.2/../../../../arm-none-eabi/lib/armv6k/fpu/libg.a(lib_a-fscanf.o)
 .data          0x001ff0b0        0x0 /Users/spinal/devkitPro/devkitARM/bin/../lib/gcc/arm-none-eabi/4.9.2/../../../../arm-none-eabi/lib/armv6k/fpu/libg.a(lib_a-fseek.o)
 .data          0x001ff0b0        0x0 /Users/spinal/devkitPro/devkitARM/bin/../lib/gcc/arm-none-eabi/4.9.2/../../../../arm-none-eabi/lib/armv6k/fpu/libg.a(lib_a-fseeko.o)
 .data          0x001ff0b0        0x0 /Users/spinal/devkitPro/devkitARM/bin/../lib/gcc/arm-none-eabi/4.9.2/../../../../arm-none-eabi/lib/armv6k/fpu/libg.a(lib_a-ftell.o)
 .data          0x001ff0b0        0x0 /Users/spinal/devkitPro/devkitARM/bin/../lib/gcc/arm-none-eabi/4.9.2/../../../../arm-none-eabi/lib/armv6k/fpu/libg.a(lib_a-ftello.o)
 .data          0x001ff0b0        0x0 /Users/spinal/devkitPro/devkitARM/bin/../lib/gcc/arm-none-eabi/4.9.2/../../../../arm-none-eabi/lib/armv6k/fpu/libg.a(lib_a-fvwrite.o)
 .data          0x001ff0b0        0x0 /Users/spinal/devkitPro/devkitARM/bin/../lib/gcc/arm-none-eabi/4.9.2/../../../../arm-none-eabi/lib/armv6k/fpu/libg.a(lib_a-fwalk.o)
 .data          0x001ff0b0        0x0 /Users/spinal/devkitPro/devkitARM/bin/../lib/gcc/arm-none-eabi/4.9.2/../../../../arm-none-eabi/lib/armv6k/fpu/libg.a(lib_a-fwrite.o)
 .data          0x001ff0b0        0x0 /Users/spinal/devkitPro/devkitARM/bin/../lib/gcc/arm-none-eabi/4.9.2/../../../../arm-none-eabi/lib/armv6k/fpu/libg.a(lib_a-impure.o)
 .data          0x001ff0b0        0x0 /Users/spinal/devkitPro/devkitARM/bin/../lib/gcc/arm-none-eabi/4.9.2/../../../../arm-none-eabi/lib/armv6k/fpu/libg.a(lib_a-init.o)
 .data          0x001ff0b0        0x0 /Users/spinal/devkitPro/devkitARM/bin/../lib/gcc/arm-none-eabi/4.9.2/../../../../arm-none-eabi/lib/armv6k/fpu/libg.a(lib_a-iprintf.o)
 .data          0x001ff0b0        0x0 /Users/spinal/devkitPro/devkitARM/bin/../lib/gcc/arm-none-eabi/4.9.2/../../../../arm-none-eabi/lib/armv6k/fpu/libg.a(lib_a-makebuf.o)
 .data          0x001ff0b0        0x0 /Users/spinal/devkitPro/devkitARM/bin/../lib/gcc/arm-none-eabi/4.9.2/../../../../arm-none-eabi/lib/armv6k/fpu/libg.a(lib_a-malloc.o)
 .data          0x001ff0b0        0x0 /Users/spinal/devkitPro/devkitARM/bin/../lib/gcc/arm-none-eabi/4.9.2/../../../../arm-none-eabi/lib/armv6k/fpu/libg.a(lib_a-mallocr.o)
 .data          0x001ff0b0        0x0 /Users/spinal/devkitPro/devkitARM/bin/../lib/gcc/arm-none-eabi/4.9.2/../../../../arm-none-eabi/lib/armv6k/fpu/libg.a(lib_a-memchr.o)
 .data          0x001ff0b0        0x0 /Users/spinal/devkitPro/devkitARM/bin/../lib/gcc/arm-none-eabi/4.9.2/../../../../arm-none-eabi/lib/armv6k/fpu/libg.a(lib_a-memcmp.o)
 .data          0x001ff0b0        0x0 /Users/spinal/devkitPro/devkitARM/bin/../lib/gcc/arm-none-eabi/4.9.2/../../../../arm-none-eabi/lib/armv6k/fpu/libg.a(lib_a-memcpy.o)
 .data          0x001ff0b0        0x0 /Users/spinal/devkitPro/devkitARM/bin/../lib/gcc/arm-none-eabi/4.9.2/../../../../arm-none-eabi/lib/armv6k/fpu/libg.a(lib_a-memmove.o)
 .data          0x001ff0b0        0x0 /Users/spinal/devkitPro/devkitARM/bin/../lib/gcc/arm-none-eabi/4.9.2/../../../../arm-none-eabi/lib/armv6k/fpu/libg.a(lib_a-memset.o)
 .data          0x001ff0b0        0x0 /Users/spinal/devkitPro/devkitARM/bin/../lib/gcc/arm-none-eabi/4.9.2/../../../../arm-none-eabi/lib/armv6k/fpu/libg.a(lib_a-mlock.o)
 .data          0x001ff0b0        0x0 /Users/spinal/devkitPro/devkitARM/bin/../lib/gcc/arm-none-eabi/4.9.2/../../../../arm-none-eabi/lib/armv6k/fpu/libg.a(lib_a-printf.o)
 .data          0x001ff0b0        0x0 /Users/spinal/devkitPro/devkitARM/bin/../lib/gcc/arm-none-eabi/4.9.2/../../../../arm-none-eabi/lib/armv6k/fpu/libg.a(lib_a-putc.o)
 .data          0x001ff0b0        0x0 /Users/spinal/devkitPro/devkitARM/bin/../lib/gcc/arm-none-eabi/4.9.2/../../../../arm-none-eabi/lib/armv6k/fpu/libg.a(lib_a-puts.o)
 .data          0x001ff0b0        0x0 /Users/spinal/devkitPro/devkitARM/bin/../lib/gcc/arm-none-eabi/4.9.2/../../../../arm-none-eabi/lib/armv6k/fpu/libg.a(lib_a-rand.o)
 .data          0x001ff0b0        0x0 /Users/spinal/devkitPro/devkitARM/bin/../lib/gcc/arm-none-eabi/4.9.2/../../../../arm-none-eabi/lib/armv6k/fpu/libg.a(lib_a-realloc.o)
 .data          0x001ff0b0        0x0 /Users/spinal/devkitPro/devkitARM/bin/../lib/gcc/arm-none-eabi/4.9.2/../../../../arm-none-eabi/lib/armv6k/fpu/libg.a(lib_a-reallocr.o)
 .data          0x001ff0b0        0x0 /Users/spinal/devkitPro/devkitARM/bin/../lib/gcc/arm-none-eabi/4.9.2/../../../../arm-none-eabi/lib/armv6k/fpu/libg.a(lib_a-refill.o)
 .data          0x001ff0b0        0x0 /Users/spinal/devkitPro/devkitARM/bin/../lib/gcc/arm-none-eabi/4.9.2/../../../../arm-none-eabi/lib/armv6k/fpu/libg.a(lib_a-remove.o)
 .data          0x001ff0b0        0x0 /Users/spinal/devkitPro/devkitARM/bin/../lib/gcc/arm-none-eabi/4.9.2/../../../../arm-none-eabi/lib/armv6k/fpu/libg.a(lib_a-rget.o)
 .data          0x001ff0b0        0x0 /Users/spinal/devkitPro/devkitARM/bin/../lib/gcc/arm-none-eabi/4.9.2/../../../../arm-none-eabi/lib/armv6k/fpu/libg.a(lib_a-signal.o)
 .data          0x001ff0b0        0x0 /Users/spinal/devkitPro/devkitARM/bin/../lib/gcc/arm-none-eabi/4.9.2/../../../../arm-none-eabi/lib/armv6k/fpu/libg.a(lib_a-sprintf.o)
 .data          0x001ff0b0        0x0 /Users/spinal/devkitPro/devkitARM/bin/../lib/gcc/arm-none-eabi/4.9.2/../../../../arm-none-eabi/lib/armv6k/fpu/libg.a(lib_a-sscanf.o)
 .data          0x001ff0b0        0x0 /Users/spinal/devkitPro/devkitARM/bin/../lib/gcc/arm-none-eabi/4.9.2/../../../../arm-none-eabi/lib/armv6k/fpu/libg.a(lib_a-stdio.o)
 .data          0x001ff0b0        0x0 /Users/spinal/devkitPro/devkitARM/bin/../lib/gcc/arm-none-eabi/4.9.2/../../../../arm-none-eabi/lib/armv6k/fpu/libg.a(lib_a-stpcpy.o)
 .data          0x001ff0b0        0x0 /Users/spinal/devkitPro/devkitARM/bin/../lib/gcc/arm-none-eabi/4.9.2/../../../../arm-none-eabi/lib/armv6k/fpu/libg.a(lib_a-strcasecmp.o)
 .data          0x001ff0b0        0x0 /Users/spinal/devkitPro/devkitARM/bin/../lib/gcc/arm-none-eabi/4.9.2/../../../../arm-none-eabi/lib/armv6k/fpu/libg.a(lib_a-strchr.o)
 .data          0x001ff0b0        0x0 /Users/spinal/devkitPro/devkitARM/bin/../lib/gcc/arm-none-eabi/4.9.2/../../../../arm-none-eabi/lib/armv6k/fpu/libg.a(lib_a-strcmp.o)
 .data          0x001ff0b0        0x0 /Users/spinal/devkitPro/devkitARM/bin/../lib/gcc/arm-none-eabi/4.9.2/../../../../arm-none-eabi/lib/armv6k/fpu/libg.a(lib_a-strcpy.o)
 .data          0x001ff0b0        0x0 /Users/spinal/devkitPro/devkitARM/bin/../lib/gcc/arm-none-eabi/4.9.2/../../../../arm-none-eabi/lib/armv6k/fpu/libg.a(lib_a-strlen.o)
 .data          0x001ff0b0        0x0 /Users/spinal/devkitPro/devkitARM/bin/../lib/gcc/arm-none-eabi/4.9.2/../../../../arm-none-eabi/lib/armv6k/fpu/libg.a(lib_a-strncat.o)
 .data          0x001ff0b0        0x0 /Users/spinal/devkitPro/devkitARM/bin/../lib/gcc/arm-none-eabi/4.9.2/../../../../arm-none-eabi/lib/armv6k/fpu/libg.a(lib_a-strncmp.o)
 .data          0x001ff0b0        0x0 /Users/spinal/devkitPro/devkitARM/bin/../lib/gcc/arm-none-eabi/4.9.2/../../../../arm-none-eabi/lib/armv6k/fpu/libg.a(lib_a-strncpy.o)
 .data          0x001ff0b0        0x0 /Users/spinal/devkitPro/devkitARM/bin/../lib/gcc/arm-none-eabi/4.9.2/../../../../arm-none-eabi/lib/armv6k/fpu/libg.a(lib_a-strtol.o)
 .data          0x001ff0b0        0x0 /Users/spinal/devkitPro/devkitARM/bin/../lib/gcc/arm-none-eabi/4.9.2/../../../../arm-none-eabi/lib/armv6k/fpu/libg.a(lib_a-svfprintf.o)
 .data          0x001ff0b0        0x0 /Users/spinal/devkitPro/devkitARM/bin/../lib/gcc/arm-none-eabi/4.9.2/../../../../arm-none-eabi/lib/armv6k/fpu/libg.a(lib_a-svfscanf.o)
 .data          0x001ff0b0        0x0 /Users/spinal/devkitPro/devkitARM/bin/../lib/gcc/arm-none-eabi/4.9.2/../../../../arm-none-eabi/lib/armv6k/fpu/libg.a(lib_a-sysstat.o)
 .data          0x001ff0b0        0x0 /Users/spinal/devkitPro/devkitARM/bin/../lib/gcc/arm-none-eabi/4.9.2/../../../../arm-none-eabi/lib/armv6k/fpu/libg.a(lib_a-syswrite.o)
 .data          0x001ff0b0        0x0 /Users/spinal/devkitPro/devkitARM/bin/../lib/gcc/arm-none-eabi/4.9.2/../../../../arm-none-eabi/lib/armv6k/fpu/libg.a(lib_a-vfiprintf.o)
 .data          0x001ff0b0        0x0 /Users/spinal/devkitPro/devkitARM/bin/../lib/gcc/arm-none-eabi/4.9.2/../../../../arm-none-eabi/lib/armv6k/fpu/libg.a(lib_a-vfprintf.o)
 .data          0x001ff0b0        0x0 /Users/spinal/devkitPro/devkitARM/bin/../lib/gcc/arm-none-eabi/4.9.2/../../../../arm-none-eabi/lib/armv6k/fpu/libg.a(lib_a-vfscanf.o)
 .data          0x001ff0b0        0x0 /Users/spinal/devkitPro/devkitARM/bin/../lib/gcc/arm-none-eabi/4.9.2/../../../../arm-none-eabi/lib/armv6k/fpu/libg.a(lib_a-wbuf.o)
 .data          0x001ff0b0        0x0 /Users/spinal/devkitPro/devkitARM/bin/../lib/gcc/arm-none-eabi/4.9.2/../../../../arm-none-eabi/lib/armv6k/fpu/libg.a(lib_a-wcrtomb.o)
 .data          0x001ff0b0        0x0 /Users/spinal/devkitPro/devkitARM/bin/../lib/gcc/arm-none-eabi/4.9.2/../../../../arm-none-eabi/lib/armv6k/fpu/libg.a(lib_a-wcsrtombs.o)
 .data          0x001ff0b0        0x0 /Users/spinal/devkitPro/devkitARM/bin/../lib/gcc/arm-none-eabi/4.9.2/../../../../arm-none-eabi/lib/armv6k/fpu/libg.a(lib_a-wctomb_r.o)
 .data          0x001ff0b0        0x0 /Users/spinal/devkitPro/devkitARM/bin/../lib/gcc/arm-none-eabi/4.9.2/../../../../arm-none-eabi/lib/armv6k/fpu/libg.a(lib_a-wsetup.o)
 .data          0x001ff0b0        0x0 /Users/spinal/devkitPro/devkitARM/bin/../lib/gcc/arm-none-eabi/4.9.2/../../../../arm-none-eabi/lib/armv6k/fpu/libg.a(lib_a-ctype_.o)
 .data          0x001ff0b0        0x0 /Users/spinal/devkitPro/devkitARM/bin/../lib/gcc/arm-none-eabi/4.9.2/../../../../arm-none-eabi/lib/armv6k/fpu/libg.a(lib_a-dtoa.o)
 .data          0x001ff0b0        0x0 /Users/spinal/devkitPro/devkitARM/bin/../lib/gcc/arm-none-eabi/4.9.2/../../../../arm-none-eabi/lib/armv6k/fpu/libg.a(lib_a-flags.o)
 .data          0x001ff0b0        0x0 /Users/spinal/devkitPro/devkitARM/bin/../lib/gcc/arm-none-eabi/4.9.2/../../../../arm-none-eabi/lib/armv6k/fpu/libg.a(lib_a-fputwc.o)
 .data          0x001ff0b0        0x0 /Users/spinal/devkitPro/devkitARM/bin/../lib/gcc/arm-none-eabi/4.9.2/../../../../arm-none-eabi/lib/armv6k/fpu/libg.a(lib_a-iswspace.o)
 .data          0x001ff0b0        0x0 /Users/spinal/devkitPro/devkitARM/bin/../lib/gcc/arm-none-eabi/4.9.2/../../../../arm-none-eabi/lib/armv6k/fpu/libg.a(lib_a-jp2uc.o)
 .data          0x001ff0b0        0x0 /Users/spinal/devkitPro/devkitARM/bin/../lib/gcc/arm-none-eabi/4.9.2/../../../../arm-none-eabi/lib/armv6k/fpu/libg.a(lib_a-locale.o)
 .data          0x001ff0b0        0x0 /Users/spinal/devkitPro/devkitARM/bin/../lib/gcc/arm-none-eabi/4.9.2/../../../../arm-none-eabi/lib/armv6k/fpu/libg.a(lib_a-mbrtowc.o)
 .data          0x001ff0b0        0x0 /Users/spinal/devkitPro/devkitARM/bin/../lib/gcc/arm-none-eabi/4.9.2/../../../../arm-none-eabi/lib/armv6k/fpu/libg.a(lib_a-mbtowc_r.o)
 .data          0x001ff0b0        0x0 /Users/spinal/devkitPro/devkitARM/bin/../lib/gcc/arm-none-eabi/4.9.2/../../../../arm-none-eabi/lib/armv6k/fpu/libg.a(lib_a-mprec.o)
 .data          0x001ff0b0        0x0 /Users/spinal/devkitPro/devkitARM/bin/../lib/gcc/arm-none-eabi/4.9.2/../../../../arm-none-eabi/lib/armv6k/fpu/libg.a(lib_a-s_fpclassify.o)
 .data          0x001ff0b0        0x0 /Users/spinal/devkitPro/devkitARM/bin/../lib/gcc/arm-none-eabi/4.9.2/../../../../arm-none-eabi/lib/armv6k/fpu/libg.a(lib_a-s_frexp.o)
 .data          0x001ff0b0        0x0 /Users/spinal/devkitPro/devkitARM/bin/../lib/gcc/arm-none-eabi/4.9.2/../../../../arm-none-eabi/lib/armv6k/fpu/libg.a(lib_a-sccl.o)
 .data          0x001ff0b0        0x0 /Users/spinal/devkitPro/devkitARM/bin/../lib/gcc/arm-none-eabi/4.9.2/../../../../arm-none-eabi/lib/armv6k/fpu/libg.a(lib_a-sf_nan.o)
 .data          0x001ff0b0        0x0 /Users/spinal/devkitPro/devkitARM/bin/../lib/gcc/arm-none-eabi/4.9.2/../../../../arm-none-eabi/lib/armv6k/fpu/libg.a(lib_a-stpncpy.o)
 .data          0x001ff0b0        0x0 /Users/spinal/devkitPro/devkitARM/bin/../lib/gcc/arm-none-eabi/4.9.2/../../../../arm-none-eabi/lib/armv6k/fpu/libg.a(lib_a-strcat.o)
 .data          0x001ff0b0        0x0 /Users/spinal/devkitPro/devkitARM/bin/../lib/gcc/arm-none-eabi/4.9.2/../../../../arm-none-eabi/lib/armv6k/fpu/libg.a(lib_a-strlcpy.o)
 .data          0x001ff0b0        0x0 /Users/spinal/devkitPro/devkitARM/bin/../lib/gcc/arm-none-eabi/4.9.2/../../../../arm-none-eabi/lib/armv6k/fpu/libg.a(lib_a-strncasecmp.o)
 .data          0x001ff0b0        0x0 /Users/spinal/devkitPro/devkitARM/bin/../lib/gcc/arm-none-eabi/4.9.2/../../../../arm-none-eabi/lib/armv6k/fpu/libg.a(lib_a-strtod.o)
 .data          0x001ff0b0        0x0 /Users/spinal/devkitPro/devkitARM/bin/../lib/gcc/arm-none-eabi/4.9.2/../../../../arm-none-eabi/lib/armv6k/fpu/libg.a(lib_a-strtoll_r.o)
 .data          0x001ff0b0        0x0 /Users/spinal/devkitPro/devkitARM/bin/../lib/gcc/arm-none-eabi/4.9.2/../../../../arm-none-eabi/lib/armv6k/fpu/libg.a(lib_a-strtoul.o)
 .data          0x001ff0b0        0x0 /Users/spinal/devkitPro/devkitARM/bin/../lib/gcc/arm-none-eabi/4.9.2/../../../../arm-none-eabi/lib/armv6k/fpu/libg.a(lib_a-strtoull_r.o)
 .data          0x001ff0b0        0x0 /Users/spinal/devkitPro/devkitARM/bin/../lib/gcc/arm-none-eabi/4.9.2/../../../../arm-none-eabi/lib/armv6k/fpu/libg.a(lib_a-svfiprintf.o)
 .data          0x001ff0b0        0x0 /Users/spinal/devkitPro/devkitARM/bin/../lib/gcc/arm-none-eabi/4.9.2/../../../../arm-none-eabi/lib/armv6k/fpu/libg.a(lib_a-svfiscanf.o)
 .data          0x001ff0b0        0x0 /Users/spinal/devkitPro/devkitARM/bin/../lib/gcc/arm-none-eabi/4.9.2/../../../../arm-none-eabi/lib/armv6k/fpu/libg.a(lib_a-ungetc.o)
 .data          0x001ff0b0        0x0 /Users/spinal/devkitPro/devkitARM/bin/../lib/gcc/arm-none-eabi/4.9.2/../../../../arm-none-eabi/lib/armv6k/fpu/libg.a(lib_a-wcsnrtombs.o)
 .data          0x001ff0b0        0x0 /Users/spinal/devkitPro/devkitARM/bin/../lib/gcc/arm-none-eabi/4.9.2/../../../../arm-none-eabi/lib/armv6k/fpu/libg.a(lib_a-callocr.o)
 .data          0x001ff0b0        0x0 /Users/spinal/devkitPro/devkitARM/bin/../lib/gcc/arm-none-eabi/4.9.2/../../../../arm-none-eabi/lib/armv6k/fpu/libg.a(lib_a-gdtoa-gethex.o)
 .data          0x001ff0b0        0x0 /Users/spinal/devkitPro/devkitARM/bin/../lib/gcc/arm-none-eabi/4.9.2/../../../../arm-none-eabi/lib/armv6k/fpu/libg.a(lib_a-gdtoa-hexnan.o)
 .data          0x001ff0b0        0x0 /Users/spinal/devkitPro/devkitARM/bin/../lib/gcc/arm-none-eabi/4.9.2/../../../../arm-none-eabi/lib/armv6k/fpu/libg.a(lib_a-getenv_r.o)
 .data          0x001ff0b0        0x0 /Users/spinal/devkitPro/devkitARM/bin/../lib/gcc/arm-none-eabi/4.9.2/../../../../arm-none-eabi/lib/armv6k/fpu/libg.a(lib_a-environ.o)
 .data          0x001ff0b0        0x0 /Users/spinal/devkitPro/devkitARM/bin/../lib/gcc/arm-none-eabi/4.9.2/../../../../arm-none-eabi/lib/armv6k/fpu/libg.a(lib_a-envlock.o)
 .data          0x001ff0b0       0x44 /Users/spinal/devkitPro/devkitARM/bin/../lib/gcc/arm-none-eabi/4.9.2/../../../../arm-none-eabi/lib/armv6k/fpu/libsysbase.a(iosupport.o)
                0x001ff0b4                devoptab_list
 .data          0x001ff0f4        0x0 /Users/spinal/devkitPro/devkitARM/bin/../lib/gcc/arm-none-eabi/4.9.2/../../../../arm-none-eabi/lib/armv6k/fpu/libsysbase.a(close.o)
 .data          0x001ff0f4        0x0 /Users/spinal/devkitPro/devkitARM/bin/../lib/gcc/arm-none-eabi/4.9.2/../../../../arm-none-eabi/lib/armv6k/fpu/libsysbase.a(fstat.o)
 .data          0x001ff0f4        0x0 /Users/spinal/devkitPro/devkitARM/bin/../lib/gcc/arm-none-eabi/4.9.2/../../../../arm-none-eabi/lib/armv6k/fpu/libsysbase.a(getpid.o)
 .data          0x001ff0f4        0x0 /Users/spinal/devkitPro/devkitARM/bin/../lib/gcc/arm-none-eabi/4.9.2/../../../../arm-none-eabi/lib/armv6k/fpu/libsysbase.a(isatty.o)
 .data          0x001ff0f4        0x0 /Users/spinal/devkitPro/devkitARM/bin/../lib/gcc/arm-none-eabi/4.9.2/../../../../arm-none-eabi/lib/armv6k/fpu/libsysbase.a(kill.o)
 .data          0x001ff0f4        0x0 /Users/spinal/devkitPro/devkitARM/bin/../lib/gcc/arm-none-eabi/4.9.2/../../../../arm-none-eabi/lib/armv6k/fpu/libsysbase.a(lseek.o)
 .data          0x001ff0f4        0x0 /Users/spinal/devkitPro/devkitARM/bin/../lib/gcc/arm-none-eabi/4.9.2/../../../../arm-none-eabi/lib/armv6k/fpu/libsysbase.a(open.o)
 .data          0x001ff0f4        0x0 /Users/spinal/devkitPro/devkitARM/bin/../lib/gcc/arm-none-eabi/4.9.2/../../../../arm-none-eabi/lib/armv6k/fpu/libsysbase.a(read.o)
 .data          0x001ff0f4        0x0 /Users/spinal/devkitPro/devkitARM/bin/../lib/gcc/arm-none-eabi/4.9.2/../../../../arm-none-eabi/lib/armv6k/fpu/libsysbase.a(sbrk.o)
 .data          0x001ff0f4        0x0 /Users/spinal/devkitPro/devkitARM/bin/../lib/gcc/arm-none-eabi/4.9.2/../../../../arm-none-eabi/lib/armv6k/fpu/libsysbase.a(stat.o)
 .data          0x001ff0f4        0x0 /Users/spinal/devkitPro/devkitARM/bin/../lib/gcc/arm-none-eabi/4.9.2/../../../../arm-none-eabi/lib/armv6k/fpu/libsysbase.a(unlink.o)
 .data          0x001ff0f4        0x0 /Users/spinal/devkitPro/devkitARM/bin/../lib/gcc/arm-none-eabi/4.9.2/../../../../arm-none-eabi/lib/armv6k/fpu/libsysbase.a(write.o)
 .data          0x001ff0f4        0x0 /Users/spinal/devkitPro/devkitARM/bin/../lib/gcc/arm-none-eabi/4.9.2/../../../../arm-none-eabi/lib/armv6k/fpu/libsysbase.a(_exit.o)
 .data          0x001ff0f4        0x0 /Users/spinal/devkitPro/devkitARM/bin/../lib/gcc/arm-none-eabi/4.9.2/../../../../arm-none-eabi/lib/armv6k/fpu/libsysbase.a(malloc_vars.o)
 .data          0x001ff0f4     0x1000 /Users/spinal/devkitPro/devkitARM/bin/../lib/gcc/arm-none-eabi/4.9.2/../../../../arm-none-eabi/lib/armv6k/fpu/libsysbase.a(chdir.o)
 .data          0x002000f4        0x0 /Users/spinal/devkitPro/devkitARM/bin/../lib/gcc/arm-none-eabi/4.9.2/../../../../arm-none-eabi/lib/armv6k/fpu/libsysbase.a(flock.o)
 .data          0x002000f4        0x0 /Users/spinal/devkitPro/devkitARM/bin/../lib/gcc/arm-none-eabi/4.9.2/../../../../arm-none-eabi/lib/armv6k/fpu/libsysbase.a(syscall_support.o)
 .data          0x002000f4     0x1024 /Users/spinal/devkitPro/devkitARM/bin/../lib/gcc/arm-none-eabi/4.9.2/../../../../arm-none-eabi/lib/armv6k/fpu/libsysbase.a(handle_manager.o)
 .data          0x00201118        0x0 /Users/spinal/devkitPro/devkitARM/bin/../lib/gcc/arm-none-eabi/4.9.2/../../../../arm-none-eabi/lib/armv6k/fpu/libsysbase.a(dirent.o)
 .data          0x00201118        0x0 /Users/spinal/devkitPro/devkitARM/bin/../lib/gcc/arm-none-eabi/4.9.2/../../../../arm-none-eabi/lib/armv6k/fpu/libsysbase.a(getreent.o)
 .data          0x00201118        0x0 /Users/spinal/devkitPro/devkitARM/bin/../lib/gcc/arm-none-eabi/4.9.2/armv6k/fpu/libgcc.a(_divsi3.o)
 .data          0x00201118        0x0 /Users/spinal/devkitPro/devkitARM/bin/../lib/gcc/arm-none-eabi/4.9.2/armv6k/fpu/libgcc.a(_aeabi_uldivmod.o)
 .data          0x00201118        0x0 /Users/spinal/devkitPro/devkitARM/bin/../lib/gcc/arm-none-eabi/4.9.2/armv6k/fpu/libgcc.a(bpabi.o)
 .data          0x00201118        0x0 /Users/spinal/devkitPro/devkitARM/bin/../lib/gcc/arm-none-eabi/4.9.2/armv6k/fpu/libgcc.a(_divdi3.o)
 .data          0x00201118        0x0 /Users/spinal/devkitPro/devkitARM/bin/../lib/gcc/arm-none-eabi/4.9.2/armv6k/fpu/libgcc.a(_udivdi3.o)
 .data          0x00201118        0x0 /Users/spinal/devkitPro/devkitARM/bin/../lib/gcc/arm-none-eabi/4.9.2/../../../../arm-none-eabi/lib/armv6k/fpu/libg.a(lib_a-errno.o)
 .data          0x00201118        0x0 /Users/spinal/devkitPro/devkitARM/bin/../lib/gcc/arm-none-eabi/4.9.2/../../../../arm-none-eabi/lib/armv6k/fpu/libg.a(lib_a-strnlen.o)
 .data          0x00201118        0x0 /Users/spinal/devkitPro/devkitARM/bin/../lib/gcc/arm-none-eabi/4.9.2/../../../../arm-none-eabi/lib/armv6k/fpu/libg.a(lib_a-strrchr.o)
 .data          0x00201118        0x0 /Users/spinal/devkitPro/devkitARM/bin/../lib/gcc/arm-none-eabi/4.9.2/armv6k/fpu/crtend.o
 .data          0x00201118        0x0 /Users/spinal/devkitPro/devkitARM/bin/../lib/gcc/arm-none-eabi/4.9.2/armv6k/fpu/crtn.o
 *(.data.*)
 .data._ZN10__cxxabiv120__unexpected_handlerE
                0x00201118        0x4 /Users/spinal/devkitPro/devkitARM/bin/../lib/gcc/arm-none-eabi/4.9.2/../../../../arm-none-eabi/lib/armv6k/fpu/libstdc++.a(eh_unex_handler.o)
                0x00201118                __cxxabiv1::__unexpected_handler
 .data._ZN10__cxxabiv119__terminate_handlerE
                0x0020111c        0x4 /Users/spinal/devkitPro/devkitARM/bin/../lib/gcc/arm-none-eabi/4.9.2/../../../../arm-none-eabi/lib/armv6k/fpu/libstdc++.a(eh_term_handler.o)
                0x0020111c                __cxxabiv1::__terminate_handler
 .data.impure_data
                0x00201120      0x428 /Users/spinal/devkitPro/devkitARM/bin/../lib/gcc/arm-none-eabi/4.9.2/../../../../arm-none-eabi/lib/armv6k/fpu/libg.a(lib_a-impure.o)
 .data._impure_ptr
                0x00201548        0x4 /Users/spinal/devkitPro/devkitARM/bin/../lib/gcc/arm-none-eabi/4.9.2/../../../../arm-none-eabi/lib/armv6k/fpu/libg.a(lib_a-impure.o)
                0x00201548                _impure_ptr
 .data.__malloc_av_
                0x0020154c      0x408 /Users/spinal/devkitPro/devkitARM/bin/../lib/gcc/arm-none-eabi/4.9.2/../../../../arm-none-eabi/lib/armv6k/fpu/libg.a(lib_a-mallocr.o)
                0x0020154c                __malloc_av_
 .data.__malloc_trim_threshold
                0x00201954        0x4 /Users/spinal/devkitPro/devkitARM/bin/../lib/gcc/arm-none-eabi/4.9.2/../../../../arm-none-eabi/lib/armv6k/fpu/libg.a(lib_a-mallocr.o)
                0x00201954                __malloc_trim_threshold
 .data.__malloc_sbrk_base
                0x00201958        0x4 /Users/spinal/devkitPro/devkitARM/bin/../lib/gcc/arm-none-eabi/4.9.2/../../../../arm-none-eabi/lib/armv6k/fpu/libg.a(lib_a-mallocr.o)
                0x00201958                __malloc_sbrk_base
 .data.__wctomb
                0x0020195c        0x4 /Users/spinal/devkitPro/devkitARM/bin/../lib/gcc/arm-none-eabi/4.9.2/../../../../arm-none-eabi/lib/armv6k/fpu/libg.a(lib_a-wctomb_r.o)
                0x0020195c                __wctomb
 .data.__ctype_ptr__
                0x00201960        0x4 /Users/spinal/devkitPro/devkitARM/bin/../lib/gcc/arm-none-eabi/4.9.2/../../../../arm-none-eabi/lib/armv6k/fpu/libg.a(lib_a-ctype_.o)
                0x00201960                __ctype_ptr__
 .data.lc_message_charset
                0x00201964       0x20 /Users/spinal/devkitPro/devkitARM/bin/../lib/gcc/arm-none-eabi/4.9.2/../../../../arm-none-eabi/lib/armv6k/fpu/libg.a(lib_a-locale.o)
 .data.lconv    0x00201984       0x38 /Users/spinal/devkitPro/devkitARM/bin/../lib/gcc/arm-none-eabi/4.9.2/../../../../arm-none-eabi/lib/armv6k/fpu/libg.a(lib_a-locale.o)
 .data.current_categories
                0x002019bc       0xe0 /Users/spinal/devkitPro/devkitARM/bin/../lib/gcc/arm-none-eabi/4.9.2/../../../../arm-none-eabi/lib/armv6k/fpu/libg.a(lib_a-locale.o)
 .data.lc_ctype_charset
                0x00201a9c       0x20 /Users/spinal/devkitPro/devkitARM/bin/../lib/gcc/arm-none-eabi/4.9.2/../../../../arm-none-eabi/lib/armv6k/fpu/libg.a(lib_a-locale.o)
 .data.__default_locale
                0x00201abc       0x20 /Users/spinal/devkitPro/devkitARM/bin/../lib/gcc/arm-none-eabi/4.9.2/../../../../arm-none-eabi/lib/armv6k/fpu/libg.a(lib_a-locale.o)
                0x00201abc                __default_locale
 .data.__mb_cur_max
                0x00201adc        0x4 /Users/spinal/devkitPro/devkitARM/bin/../lib/gcc/arm-none-eabi/4.9.2/../../../../arm-none-eabi/lib/armv6k/fpu/libg.a(lib_a-locale.o)
                0x00201adc                __mb_cur_max
 .data.__mbtowc
                0x00201ae0        0x4 /Users/spinal/devkitPro/devkitARM/bin/../lib/gcc/arm-none-eabi/4.9.2/../../../../arm-none-eabi/lib/armv6k/fpu/libg.a(lib_a-mbtowc_r.o)
                0x00201ae0                __mbtowc
 .data.environ  0x00201ae4        0x4 /Users/spinal/devkitPro/devkitARM/bin/../lib/gcc/arm-none-eabi/4.9.2/../../../../arm-none-eabi/lib/armv6k/fpu/libg.a(lib_a-environ.o)
                0x00201ae4                environ
 *(.gnu.linkonce.d*)
                0x00201ae8                . = ALIGN (0x4)

.igot.plt       0x00201ae8        0x0
 .igot.plt      0x00201ae8        0x0 /Users/spinal/devkitPro/devkitARM/bin/../lib/gcc/arm-none-eabi/4.9.2/../../../../arm-none-eabi/lib/armv6k/fpu/3dsx_crt0.o

.eh_frame       0x00201ae8       0x74
 .eh_frame      0x00201ae8        0x0 /Users/spinal/devkitPro/devkitARM/bin/../lib/gcc/arm-none-eabi/4.9.2/armv6k/fpu/crtbegin.o
 .eh_frame      0x00201ae8       0x70 /Users/spinal/devkitPro/devkitARM/bin/../lib/gcc/arm-none-eabi/4.9.2/../../../../arm-none-eabi/lib/armv6k/fpu/libg.a(lib_a-strcmp.o)
 .eh_frame      0x00201b58        0x4 /Users/spinal/devkitPro/devkitARM/bin/../lib/gcc/arm-none-eabi/4.9.2/armv6k/fpu/crtend.o

.jcr            0x00201b5c        0x4
 .jcr           0x00201b5c        0x0 /Users/spinal/devkitPro/devkitARM/bin/../lib/gcc/arm-none-eabi/4.9.2/armv6k/fpu/crtbegin.o
 .jcr           0x00201b5c        0x4 /Users/spinal/devkitPro/devkitARM/bin/../lib/gcc/arm-none-eabi/4.9.2/armv6k/fpu/crtend.o

.tm_clone_table
                0x00201b60        0x0
 .tm_clone_table
                0x00201b60        0x0 /Users/spinal/devkitPro/devkitARM/bin/../lib/gcc/arm-none-eabi/4.9.2/armv6k/fpu/crtbegin.o
 .tm_clone_table
                0x00201b60        0x0 /Users/spinal/devkitPro/devkitARM/bin/../lib/gcc/arm-none-eabi/4.9.2/armv6k/fpu/crtend.o
                0x00201b60                __TMC_END__

.preinit_array  0x00201b60        0x0
                0x00201b60                PROVIDE (__preinit_array_start, .)
 *(.preinit_array)
                0x00201b60                PROVIDE (__preinit_array_end, .)

.init_array     0x00201b60        0x8
                0x00201b60                PROVIDE (__init_array_start, .)
 *(SORT(.init_array.*))
 *(.init_array)
 .init_array    0x00201b60        0x4 /Users/spinal/devkitPro/devkitARM/bin/../lib/gcc/arm-none-eabi/4.9.2/armv6k/fpu/crtbegin.o
 .init_array    0x00201b64        0x4 Prefs.o
                0x00201b68                PROVIDE (__init_array_end, .)

.fini_array     0x00201b68        0x4
                0x00201b68                PROVIDE (__fini_array_start, .)
 *(.fini_array)
 .fini_array    0x00201b68        0x4 /Users/spinal/devkitPro/devkitARM/bin/../lib/gcc/arm-none-eabi/4.9.2/armv6k/fpu/crtbegin.o
 *(SORT(.fini_array.*))
                0x00201b6c                PROVIDE (__fini_array_end, .)

.ctors
 *crtbegin.o(.ctors)
 *(EXCLUDE_FILE(*crtend.o) .ctors)
 *(SORT(.ctors.*))
 *(.ctors)

.dtors
 *crtbegin.o(.dtors)
 *(EXCLUDE_FILE(*crtend.o) .dtors)
 *(SORT(.dtors.*))
 *(.dtors)
                0x00201b6c                __bss_start__ = .

.bss            0x00201b6c    0x9915c
 *(.dynbss)
 *(.bss)
 .bss           0x00201b6c        0x0 /Users/spinal/devkitPro/devkitARM/bin/../lib/gcc/arm-none-eabi/4.9.2/../../../../arm-none-eabi/lib/armv6k/fpu/3dsx_crt0.o
 .bss           0x00201b6c        0x0 /Users/spinal/devkitPro/devkitARM/bin/../lib/gcc/arm-none-eabi/4.9.2/armv6k/fpu/crti.o
 .bss           0x00201b6c       0x1c /Users/spinal/devkitPro/devkitARM/bin/../lib/gcc/arm-none-eabi/4.9.2/armv6k/fpu/crtbegin.o
 .bss           0x00201b88        0x0 1541.ROM.bin.o
 .bss           0x00201b88        0x0 BASIC.ROM.bin.o
 .bss           0x00201b88        0x0 C64_Keyboard.bin.o
 .bss           0x00201b88        0x0 CHAR.ROM.bin.o
 .bss           0x00201b88        0x0 KERNAL.ROM.bin.o
 .bss           0x00201b88        0x0 myfont.bin.o
 .bss           0x00201b88        0x0 myfont1.bin.o
 .bss           0x00201b88      0x100 1541d64.o
                0x00201b88                a
 .bss           0x00201c88        0x0 1541job.o
 .bss           0x00201c88        0x0 1541t64.o
 .bss           0x00201c88     0x66c8 C64.o
                0x00201c88                filelist
                0x00208088                fileType
                0x00208218                filesInList
                0x0020821c                filesGot
                0x00208220                kbd_feedbuf
                0x00208320                kbd_feedbuf_pos
                0x00208324                oldKeys
                0x00208328                currentFile
                0x0020832c                currentDrive
                0x00208330                penDown
                0x00208334                oldPenDown
                0x00208338                switchstick
                0x0020833c                space
                0x00208340                old_time
                0x00208344                total_frames
                0x00208348                bottom_fb
                0x0020834c                IsFrodoSC
 .bss           0x00208350        0x0 CIA.o
 .bss           0x00208350        0x0 CPU1541.o
 .bss           0x00208350        0x0 CPUC64.o
 .bss           0x00208350        0x0 CPU_common.o
 .bss           0x00208350     0x1214 Display.o
                0x00208750                ctrled
                0x00208754                bufmem
                0x00208758                shifted
                0x00208759                cmbed
                0x0020935c                firsttime
                0x00209360                counta
                0x00209364                menufirsttime
                0x00209368                str
                0x0020955c                emu_buf
                0x00209560                hb_count
 .bss           0x00209564        0x0 IEC.o
 .bss           0x00209564      0xca0 Prefs.o
                0x00209564                ThePrefsOnDisk
                0x00209bb4                ThePrefs
 .bss           0x0020a204        0x0 REU.o
 .bss           0x0020a204      0x120 SAM.o
 .bss           0x0020a324     0x4000 SID.o
                0x0020a324                DigitalRenderer::TriTable
 .bss           0x0020e324    0x80000 VIC.o
 .bss           0x0028e324        0x0 file.o
 .bss           0x0028e324      0xa5c main.o
                0x0028e978                buffer
                0x0028e97c                AppDirPath
                0x0028ed7c                TheC64
 .bss           0x0028ed80        0x0 sound9.o
 .bss           0x0028ed80        0xc /Users/spinal/devkitPro/libctru/lib/libctru.a(gfx.o)
                0x0028ed84                screenFree
 .bss           0x0028ed8c        0x4 /Users/spinal/devkitPro/libctru/lib/libctru.a(srv.o)
 .bss           0x0028ed90       0x5c /Users/spinal/devkitPro/libctru/lib/libctru.a(apt.o)
                0x0028ed94                aptStatusEvent
                0x0028eda4                aptStatus
                0x0028eda8                aptStatusPower
                0x0028edac                aptSleepSync
                0x0028edd4                aptStatusBeforeSleep
 .bss           0x0028edec        0x8 /Users/spinal/devkitPro/libctru/lib/libctru.a(fs.o)
 .bss           0x0028edf4        0xc /Users/spinal/devkitPro/libctru/lib/libctru.a(gsp.o)
                0x0028edfc                gspGpuHandle
 .bss           0x0028ee00        0x0 /Users/spinal/devkitPro/libctru/lib/libctru.a(gx.o)
 .bss           0x0028ee00       0x2c /Users/spinal/devkitPro/libctru/lib/libctru.a(hid.o)
 .bss           0x0028ee2c        0xc /Users/spinal/devkitPro/libctru/lib/libctru.a(irrst.o)
 .bss           0x0028ee38        0x0 /Users/spinal/devkitPro/libctru/lib/libctru.a(initArgv.o)
 .bss           0x0028ee38        0x0 /Users/spinal/devkitPro/libctru/lib/libctru.a(initSystem.o)
 .bss           0x0028ee38        0x0 /Users/spinal/devkitPro/libctru/lib/libctru.a(svc.o)
 .bss           0x0028ee38        0x8 /Users/spinal/devkitPro/libctru/lib/libctru.a(stack_adjust.o)
 .bss           0x0028ee40       0x14 /Users/spinal/devkitPro/libctru/lib/libctru.a(linear.o)
 .bss           0x0028ee54        0x0 /Users/spinal/devkitPro/libctru/lib/libctru.a(mem_pool.o)
 .bss           0x0028ee54       0x14 /Users/spinal/devkitPro/libctru/lib/libctru.a(vram.o)
 .bss           0x0028ee68        0x0 /Users/spinal/devkitPro/libctru/lib/libctru.a(os.o)
 .bss           0x0028ee68        0x0 /Users/spinal/devkitPro/libctru/lib/libctru.a(rbtree_find.o)
 .bss           0x0028ee68        0x0 /Users/spinal/devkitPro/libctru/lib/libctru.a(rbtree_init.o)
 .bss           0x0028ee68        0x0 /Users/spinal/devkitPro/libctru/lib/libctru.a(rbtree_insert.o)
 .bss           0x0028ee68        0x0 /Users/spinal/devkitPro/libctru/lib/libctru.a(rbtree_remove.o)
 .bss           0x0028ee68        0x0 /Users/spinal/devkitPro/libctru/lib/libctru.a(rbtree_rotate.o)
 .bss           0x0028ee68        0x0 /Users/spinal/devkitPro/libctru/lib/libctru.a(allocateHeaps.o)
 .bss           0x0028ee68        0x0 /Users/spinal/devkitPro/libctru/lib/libctru.a(appExit.o)
 .bss           0x0028ee68        0x0 /Users/spinal/devkitPro/libctru/lib/libctru.a(appInit.o)
 .bss           0x0028ee68        0x0 /Users/spinal/devkitPro/libctru/lib/libctru.a(ctru_exit.o)
 .bss           0x0028ee68     0x700c /Users/spinal/devkitPro/libctru/lib/libctru.a(sdmc_dev.o)
 .bss           0x00295e74        0x0 /Users/spinal/devkitPro/libctru/lib/libctru.a(rbtree_iterator.o)
 .bss           0x00295e74        0x0 /Users/spinal/devkitPro/libctru/lib/libctru.a(decode_utf8.o)
 .bss           0x00295e74        0x0 /Users/spinal/devkitPro/libctru/lib/libctru.a(utf16_to_utf8.o)
 .bss           0x00295e74        0x0 /Users/spinal/devkitPro/libctru/lib/libctru.a(utf8_to_utf16.o)
 .bss           0x00295e74        0x0 /Users/spinal/devkitPro/libctru/lib/libctru.a(decode_utf16.o)
 .bss           0x00295e74        0x0 /Users/spinal/devkitPro/libctru/lib/libctru.a(encode_utf16.o)
 .bss           0x00295e74        0x0 /Users/spinal/devkitPro/libctru/lib/libctru.a(encode_utf8.o)
 .bss           0x00295e74        0x0 /Users/spinal/devkitPro/devkitARM/bin/../lib/gcc/arm-none-eabi/4.9.2/../../../../arm-none-eabi/lib/armv6k/fpu/libstdc++.a(del_op.o)
 .bss           0x00295e74        0x0 /Users/spinal/devkitPro/devkitARM/bin/../lib/gcc/arm-none-eabi/4.9.2/../../../../arm-none-eabi/lib/armv6k/fpu/libstdc++.a(del_opv.o)
 .bss           0x00295e74        0x0 /Users/spinal/devkitPro/devkitARM/bin/../lib/gcc/arm-none-eabi/4.9.2/../../../../arm-none-eabi/lib/armv6k/fpu/libstdc++.a(guard.o)
 .bss           0x00295e74        0x0 /Users/spinal/devkitPro/devkitARM/bin/../lib/gcc/arm-none-eabi/4.9.2/../../../../arm-none-eabi/lib/armv6k/fpu/libstdc++.a(guard_error.o)
 .bss           0x00295e74        0x0 /Users/spinal/devkitPro/devkitARM/bin/../lib/gcc/arm-none-eabi/4.9.2/../../../../arm-none-eabi/lib/armv6k/fpu/libstdc++.a(new_op.o)
 .bss           0x00295e74        0x0 /Users/spinal/devkitPro/devkitARM/bin/../lib/gcc/arm-none-eabi/4.9.2/../../../../arm-none-eabi/lib/armv6k/fpu/libstdc++.a(new_opv.o)
 .bss           0x00295e74        0x0 /Users/spinal/devkitPro/devkitARM/bin/../lib/gcc/arm-none-eabi/4.9.2/../../../../arm-none-eabi/lib/armv6k/fpu/libstdc++.a(pure.o)
 .bss           0x00295e74        0x0 /Users/spinal/devkitPro/devkitARM/bin/../lib/gcc/arm-none-eabi/4.9.2/../../../../arm-none-eabi/lib/armv6k/fpu/libstdc++.a(si_class_type_info.o)
 .bss           0x00295e74        0x0 /Users/spinal/devkitPro/devkitARM/bin/../lib/gcc/arm-none-eabi/4.9.2/../../../../arm-none-eabi/lib/armv6k/fpu/libstdc++.a(tinfo.o)
 .bss           0x00295e74        0x0 /Users/spinal/devkitPro/devkitARM/bin/../lib/gcc/arm-none-eabi/4.9.2/../../../../arm-none-eabi/lib/armv6k/fpu/libstdc++.a(bad_alloc.o)
 .bss           0x00295e74        0x0 /Users/spinal/devkitPro/devkitARM/bin/../lib/gcc/arm-none-eabi/4.9.2/../../../../arm-none-eabi/lib/armv6k/fpu/libstdc++.a(class_type_info.o)
 .bss           0x00295e74        0x0 /Users/spinal/devkitPro/devkitARM/bin/../lib/gcc/arm-none-eabi/4.9.2/../../../../arm-none-eabi/lib/armv6k/fpu/libstdc++.a(eh_alloc.o)
 .bss           0x00295e74        0x0 /Users/spinal/devkitPro/devkitARM/bin/../lib/gcc/arm-none-eabi/4.9.2/../../../../arm-none-eabi/lib/armv6k/fpu/libstdc++.a(eh_arm.o)
 .bss           0x00295e74        0x0 /Users/spinal/devkitPro/devkitARM/bin/../lib/gcc/arm-none-eabi/4.9.2/../../../../arm-none-eabi/lib/armv6k/fpu/libstdc++.a(eh_call.o)
 .bss           0x00295e74        0x0 /Users/spinal/devkitPro/devkitARM/bin/../lib/gcc/arm-none-eabi/4.9.2/../../../../arm-none-eabi/lib/armv6k/fpu/libstdc++.a(eh_catch.o)
 .bss           0x00295e74        0x0 /Users/spinal/devkitPro/devkitARM/bin/../lib/gcc/arm-none-eabi/4.9.2/../../../../arm-none-eabi/lib/armv6k/fpu/libstdc++.a(eh_exception.o)
 .bss           0x00295e74        0x0 /Users/spinal/devkitPro/devkitARM/bin/../lib/gcc/arm-none-eabi/4.9.2/../../../../arm-none-eabi/lib/armv6k/fpu/libstdc++.a(eh_globals.o)
 .bss           0x00295e74        0x0 /Users/spinal/devkitPro/devkitARM/bin/../lib/gcc/arm-none-eabi/4.9.2/../../../../arm-none-eabi/lib/armv6k/fpu/libstdc++.a(eh_personality.o)
 .bss           0x00295e74        0x0 /Users/spinal/devkitPro/devkitARM/bin/../lib/gcc/arm-none-eabi/4.9.2/../../../../arm-none-eabi/lib/armv6k/fpu/libstdc++.a(eh_terminate.o)
 .bss           0x00295e74        0x0 /Users/spinal/devkitPro/devkitARM/bin/../lib/gcc/arm-none-eabi/4.9.2/../../../../arm-none-eabi/lib/armv6k/fpu/libstdc++.a(eh_throw.o)
 .bss           0x00295e74        0x0 /Users/spinal/devkitPro/devkitARM/bin/../lib/gcc/arm-none-eabi/4.9.2/../../../../arm-none-eabi/lib/armv6k/fpu/libstdc++.a(eh_unex_handler.o)
 .bss           0x00295e74        0x0 /Users/spinal/devkitPro/devkitARM/bin/../lib/gcc/arm-none-eabi/4.9.2/../../../../arm-none-eabi/lib/armv6k/fpu/libstdc++.a(new_handler.o)
 .bss           0x00295e74        0x0 /Users/spinal/devkitPro/devkitARM/bin/../lib/gcc/arm-none-eabi/4.9.2/../../../../arm-none-eabi/lib/armv6k/fpu/libstdc++.a(eh_term_handler.o)
 .bss           0x00295e74        0x0 /Users/spinal/devkitPro/devkitARM/bin/../lib/gcc/arm-none-eabi/4.9.2/../../../../arm-none-eabi/lib/armv6k/fpu/libstdc++.a(vterminate.o)
 .bss           0x00295e74        0x0 /Users/spinal/devkitPro/devkitARM/bin/../lib/gcc/arm-none-eabi/4.9.2/../../../../arm-none-eabi/lib/armv6k/fpu/libstdc++.a(cp-demangle.o)
 .bss           0x00295e74        0x0 /Users/spinal/devkitPro/devkitARM/bin/../lib/gcc/arm-none-eabi/4.9.2/../../../../arm-none-eabi/lib/armv6k/fpu/libstdc++.a(eh_type.o)
 .bss           0x00295e74        0x0 /Users/spinal/devkitPro/devkitARM/bin/../lib/gcc/arm-none-eabi/4.9.2/../../../../arm-none-eabi/lib/armv6k/fpu/libm.a(lib_a-s_cos.o)
 .bss           0x00295e74        0x0 /Users/spinal/devkitPro/devkitARM/bin/../lib/gcc/arm-none-eabi/4.9.2/../../../../arm-none-eabi/lib/armv6k/fpu/libm.a(lib_a-s_sin.o)
 .bss           0x00295e74        0x0 /Users/spinal/devkitPro/devkitARM/bin/../lib/gcc/arm-none-eabi/4.9.2/../../../../arm-none-eabi/lib/armv6k/fpu/libm.a(lib_a-e_rem_pio2.o)
 .bss           0x00295e74        0x0 /Users/spinal/devkitPro/devkitARM/bin/../lib/gcc/arm-none-eabi/4.9.2/../../../../arm-none-eabi/lib/armv6k/fpu/libm.a(lib_a-k_cos.o)
 .bss           0x00295e74        0x0 /Users/spinal/devkitPro/devkitARM/bin/../lib/gcc/arm-none-eabi/4.9.2/../../../../arm-none-eabi/lib/armv6k/fpu/libm.a(lib_a-k_rem_pio2.o)
 .bss           0x00295e74        0x0 /Users/spinal/devkitPro/devkitARM/bin/../lib/gcc/arm-none-eabi/4.9.2/../../../../arm-none-eabi/lib/armv6k/fpu/libm.a(lib_a-k_sin.o)
 .bss           0x00295e74        0x0 /Users/spinal/devkitPro/devkitARM/bin/../lib/gcc/arm-none-eabi/4.9.2/../../../../arm-none-eabi/lib/armv6k/fpu/libm.a(lib_a-s_fabs.o)
 .bss           0x00295e74        0x0 /Users/spinal/devkitPro/devkitARM/bin/../lib/gcc/arm-none-eabi/4.9.2/../../../../arm-none-eabi/lib/armv6k/fpu/libm.a(lib_a-s_floor.o)
 .bss           0x00295e74        0x0 /Users/spinal/devkitPro/devkitARM/bin/../lib/gcc/arm-none-eabi/4.9.2/../../../../arm-none-eabi/lib/armv6k/fpu/libm.a(lib_a-s_scalbn.o)
 .bss           0x00295e74        0x0 /Users/spinal/devkitPro/devkitARM/bin/../lib/gcc/arm-none-eabi/4.9.2/../../../../arm-none-eabi/lib/armv6k/fpu/libm.a(lib_a-s_copysign.o)
 .bss           0x00295e74        0x0 /Users/spinal/devkitPro/devkitARM/bin/../lib/gcc/arm-none-eabi/4.9.2/armv6k/fpu/libgcc.a(_udivsi3.o)
 .bss           0x00295e74        0x0 /Users/spinal/devkitPro/devkitARM/bin/../lib/gcc/arm-none-eabi/4.9.2/armv6k/fpu/libgcc.a(_dvmd_tls.o)
 .bss           0x00295e74        0x0 /Users/spinal/devkitPro/devkitARM/bin/../lib/gcc/arm-none-eabi/4.9.2/armv6k/fpu/libgcc.a(unwind-arm.o)
 .bss           0x00295e74        0x0 /Users/spinal/devkitPro/devkitARM/bin/../lib/gcc/arm-none-eabi/4.9.2/armv6k/fpu/libgcc.a(libunwind.o)
 .bss           0x00295e74        0x0 /Users/spinal/devkitPro/devkitARM/bin/../lib/gcc/arm-none-eabi/4.9.2/armv6k/fpu/libgcc.a(pr-support.o)
 .bss           0x00295e74        0x0 /Users/spinal/devkitPro/devkitARM/bin/../lib/gcc/arm-none-eabi/4.9.2/../../../../arm-none-eabi/lib/armv6k/fpu/libg.a(lib_a-abort.o)
 .bss           0x00295e74        0x0 /Users/spinal/devkitPro/devkitARM/bin/../lib/gcc/arm-none-eabi/4.9.2/../../../../arm-none-eabi/lib/armv6k/fpu/libg.a(lib_a-atoi.o)
 .bss           0x00295e74        0x0 /Users/spinal/devkitPro/devkitARM/bin/../lib/gcc/arm-none-eabi/4.9.2/../../../../arm-none-eabi/lib/armv6k/fpu/libg.a(lib_a-bsearch.o)
 .bss           0x00295e74        0x0 /Users/spinal/devkitPro/devkitARM/bin/../lib/gcc/arm-none-eabi/4.9.2/../../../../arm-none-eabi/lib/armv6k/fpu/libg.a(lib_a-fclose.o)
 .bss           0x00295e74        0x0 /Users/spinal/devkitPro/devkitARM/bin/../lib/gcc/arm-none-eabi/4.9.2/../../../../arm-none-eabi/lib/armv6k/fpu/libg.a(lib_a-fflush.o)
 .bss           0x00295e74        0x0 /Users/spinal/devkitPro/devkitARM/bin/../lib/gcc/arm-none-eabi/4.9.2/../../../../arm-none-eabi/lib/armv6k/fpu/libg.a(lib_a-fgetc.o)
 .bss           0x00295e74        0x0 /Users/spinal/devkitPro/devkitARM/bin/../lib/gcc/arm-none-eabi/4.9.2/../../../../arm-none-eabi/lib/armv6k/fpu/libg.a(lib_a-fgets.o)
 .bss           0x00295e74        0x0 /Users/spinal/devkitPro/devkitARM/bin/../lib/gcc/arm-none-eabi/4.9.2/../../../../arm-none-eabi/lib/armv6k/fpu/libg.a(lib_a-findfp.o)
 .bss           0x00295e74        0x0 /Users/spinal/devkitPro/devkitARM/bin/../lib/gcc/arm-none-eabi/4.9.2/../../../../arm-none-eabi/lib/armv6k/fpu/libg.a(lib_a-fini.o)
 .bss           0x00295e74        0x0 /Users/spinal/devkitPro/devkitARM/bin/../lib/gcc/arm-none-eabi/4.9.2/../../../../arm-none-eabi/lib/armv6k/fpu/libg.a(lib_a-fopen.o)
 .bss           0x00295e74        0x0 /Users/spinal/devkitPro/devkitARM/bin/../lib/gcc/arm-none-eabi/4.9.2/../../../../arm-none-eabi/lib/armv6k/fpu/libg.a(lib_a-fprintf.o)
 .bss           0x00295e74        0x0 /Users/spinal/devkitPro/devkitARM/bin/../lib/gcc/arm-none-eabi/4.9.2/../../../../arm-none-eabi/lib/armv6k/fpu/libg.a(lib_a-fputc.o)
 .bss           0x00295e74        0x0 /Users/spinal/devkitPro/devkitARM/bin/../lib/gcc/arm-none-eabi/4.9.2/../../../../arm-none-eabi/lib/armv6k/fpu/libg.a(lib_a-fputs.o)
 .bss           0x00295e74        0x0 /Users/spinal/devkitPro/devkitARM/bin/../lib/gcc/arm-none-eabi/4.9.2/../../../../arm-none-eabi/lib/armv6k/fpu/libg.a(lib_a-fread.o)
 .bss           0x00295e74        0x0 /Users/spinal/devkitPro/devkitARM/bin/../lib/gcc/arm-none-eabi/4.9.2/../../../../arm-none-eabi/lib/armv6k/fpu/libg.a(lib_a-freer.o)
 .bss           0x00295e74        0x0 /Users/spinal/devkitPro/devkitARM/bin/../lib/gcc/arm-none-eabi/4.9.2/../../../../arm-none-eabi/lib/armv6k/fpu/libg.a(lib_a-fscanf.o)
 .bss           0x00295e74        0x0 /Users/spinal/devkitPro/devkitARM/bin/../lib/gcc/arm-none-eabi/4.9.2/../../../../arm-none-eabi/lib/armv6k/fpu/libg.a(lib_a-fseek.o)
 .bss           0x00295e74        0x0 /Users/spinal/devkitPro/devkitARM/bin/../lib/gcc/arm-none-eabi/4.9.2/../../../../arm-none-eabi/lib/armv6k/fpu/libg.a(lib_a-fseeko.o)
 .bss           0x00295e74        0x0 /Users/spinal/devkitPro/devkitARM/bin/../lib/gcc/arm-none-eabi/4.9.2/../../../../arm-none-eabi/lib/armv6k/fpu/libg.a(lib_a-ftell.o)
 .bss           0x00295e74        0x0 /Users/spinal/devkitPro/devkitARM/bin/../lib/gcc/arm-none-eabi/4.9.2/../../../../arm-none-eabi/lib/armv6k/fpu/libg.a(lib_a-ftello.o)
 .bss           0x00295e74        0x0 /Users/spinal/devkitPro/devkitARM/bin/../lib/gcc/arm-none-eabi/4.9.2/../../../../arm-none-eabi/lib/armv6k/fpu/libg.a(lib_a-fvwrite.o)
 .bss           0x00295e74        0x0 /Users/spinal/devkitPro/devkitARM/bin/../lib/gcc/arm-none-eabi/4.9.2/../../../../arm-none-eabi/lib/armv6k/fpu/libg.a(lib_a-fwalk.o)
 .bss           0x00295e74        0x0 /Users/spinal/devkitPro/devkitARM/bin/../lib/gcc/arm-none-eabi/4.9.2/../../../../arm-none-eabi/lib/armv6k/fpu/libg.a(lib_a-fwrite.o)
 .bss           0x00295e74        0x0 /Users/spinal/devkitPro/devkitARM/bin/../lib/gcc/arm-none-eabi/4.9.2/../../../../arm-none-eabi/lib/armv6k/fpu/libg.a(lib_a-impure.o)
 .bss           0x00295e74        0x0 /Users/spinal/devkitPro/devkitARM/bin/../lib/gcc/arm-none-eabi/4.9.2/../../../../arm-none-eabi/lib/armv6k/fpu/libg.a(lib_a-init.o)
 .bss           0x00295e74        0x0 /Users/spinal/devkitPro/devkitARM/bin/../lib/gcc/arm-none-eabi/4.9.2/../../../../arm-none-eabi/lib/armv6k/fpu/libg.a(lib_a-iprintf.o)
 .bss           0x00295e74        0x0 /Users/spinal/devkitPro/devkitARM/bin/../lib/gcc/arm-none-eabi/4.9.2/../../../../arm-none-eabi/lib/armv6k/fpu/libg.a(lib_a-makebuf.o)
 .bss           0x00295e74        0x0 /Users/spinal/devkitPro/devkitARM/bin/../lib/gcc/arm-none-eabi/4.9.2/../../../../arm-none-eabi/lib/armv6k/fpu/libg.a(lib_a-malloc.o)
 .bss           0x00295e74        0x0 /Users/spinal/devkitPro/devkitARM/bin/../lib/gcc/arm-none-eabi/4.9.2/../../../../arm-none-eabi/lib/armv6k/fpu/libg.a(lib_a-mallocr.o)
 .bss           0x00295e74        0x0 /Users/spinal/devkitPro/devkitARM/bin/../lib/gcc/arm-none-eabi/4.9.2/../../../../arm-none-eabi/lib/armv6k/fpu/libg.a(lib_a-memchr.o)
 .bss           0x00295e74        0x0 /Users/spinal/devkitPro/devkitARM/bin/../lib/gcc/arm-none-eabi/4.9.2/../../../../arm-none-eabi/lib/armv6k/fpu/libg.a(lib_a-memcmp.o)
 .bss           0x00295e74        0x0 /Users/spinal/devkitPro/devkitARM/bin/../lib/gcc/arm-none-eabi/4.9.2/../../../../arm-none-eabi/lib/armv6k/fpu/libg.a(lib_a-memcpy.o)
 .bss           0x00295e74        0x0 /Users/spinal/devkitPro/devkitARM/bin/../lib/gcc/arm-none-eabi/4.9.2/../../../../arm-none-eabi/lib/armv6k/fpu/libg.a(lib_a-memmove.o)
 .bss           0x00295e74        0x0 /Users/spinal/devkitPro/devkitARM/bin/../lib/gcc/arm-none-eabi/4.9.2/../../../../arm-none-eabi/lib/armv6k/fpu/libg.a(lib_a-memset.o)
 .bss           0x00295e74        0x0 /Users/spinal/devkitPro/devkitARM/bin/../lib/gcc/arm-none-eabi/4.9.2/../../../../arm-none-eabi/lib/armv6k/fpu/libg.a(lib_a-mlock.o)
 .bss           0x00295e74        0x0 /Users/spinal/devkitPro/devkitARM/bin/../lib/gcc/arm-none-eabi/4.9.2/../../../../arm-none-eabi/lib/armv6k/fpu/libg.a(lib_a-printf.o)
 .bss           0x00295e74        0x0 /Users/spinal/devkitPro/devkitARM/bin/../lib/gcc/arm-none-eabi/4.9.2/../../../../arm-none-eabi/lib/armv6k/fpu/libg.a(lib_a-putc.o)
 .bss           0x00295e74        0x0 /Users/spinal/devkitPro/devkitARM/bin/../lib/gcc/arm-none-eabi/4.9.2/../../../../arm-none-eabi/lib/armv6k/fpu/libg.a(lib_a-puts.o)
 .bss           0x00295e74        0x0 /Users/spinal/devkitPro/devkitARM/bin/../lib/gcc/arm-none-eabi/4.9.2/../../../../arm-none-eabi/lib/armv6k/fpu/libg.a(lib_a-rand.o)
 .bss           0x00295e74        0x0 /Users/spinal/devkitPro/devkitARM/bin/../lib/gcc/arm-none-eabi/4.9.2/../../../../arm-none-eabi/lib/armv6k/fpu/libg.a(lib_a-realloc.o)
 .bss           0x00295e74        0x0 /Users/spinal/devkitPro/devkitARM/bin/../lib/gcc/arm-none-eabi/4.9.2/../../../../arm-none-eabi/lib/armv6k/fpu/libg.a(lib_a-reallocr.o)
 .bss           0x00295e74        0x0 /Users/spinal/devkitPro/devkitARM/bin/../lib/gcc/arm-none-eabi/4.9.2/../../../../arm-none-eabi/lib/armv6k/fpu/libg.a(lib_a-refill.o)
 .bss           0x00295e74        0x0 /Users/spinal/devkitPro/devkitARM/bin/../lib/gcc/arm-none-eabi/4.9.2/../../../../arm-none-eabi/lib/armv6k/fpu/libg.a(lib_a-remove.o)
 .bss           0x00295e74        0x0 /Users/spinal/devkitPro/devkitARM/bin/../lib/gcc/arm-none-eabi/4.9.2/../../../../arm-none-eabi/lib/armv6k/fpu/libg.a(lib_a-rget.o)
 .bss           0x00295e74        0x0 /Users/spinal/devkitPro/devkitARM/bin/../lib/gcc/arm-none-eabi/4.9.2/../../../../arm-none-eabi/lib/armv6k/fpu/libg.a(lib_a-signal.o)
 .bss           0x00295e74        0x0 /Users/spinal/devkitPro/devkitARM/bin/../lib/gcc/arm-none-eabi/4.9.2/../../../../arm-none-eabi/lib/armv6k/fpu/libg.a(lib_a-sprintf.o)
 .bss           0x00295e74        0x0 /Users/spinal/devkitPro/devkitARM/bin/../lib/gcc/arm-none-eabi/4.9.2/../../../../arm-none-eabi/lib/armv6k/fpu/libg.a(lib_a-sscanf.o)
 .bss           0x00295e74        0x0 /Users/spinal/devkitPro/devkitARM/bin/../lib/gcc/arm-none-eabi/4.9.2/../../../../arm-none-eabi/lib/armv6k/fpu/libg.a(lib_a-stdio.o)
 .bss           0x00295e74        0x0 /Users/spinal/devkitPro/devkitARM/bin/../lib/gcc/arm-none-eabi/4.9.2/../../../../arm-none-eabi/lib/armv6k/fpu/libg.a(lib_a-stpcpy.o)
 .bss           0x00295e74        0x0 /Users/spinal/devkitPro/devkitARM/bin/../lib/gcc/arm-none-eabi/4.9.2/../../../../arm-none-eabi/lib/armv6k/fpu/libg.a(lib_a-strcasecmp.o)
 .bss           0x00295e74        0x0 /Users/spinal/devkitPro/devkitARM/bin/../lib/gcc/arm-none-eabi/4.9.2/../../../../arm-none-eabi/lib/armv6k/fpu/libg.a(lib_a-strchr.o)
 .bss           0x00295e74        0x0 /Users/spinal/devkitPro/devkitARM/bin/../lib/gcc/arm-none-eabi/4.9.2/../../../../arm-none-eabi/lib/armv6k/fpu/libg.a(lib_a-strcmp.o)
 .bss           0x00295e74        0x0 /Users/spinal/devkitPro/devkitARM/bin/../lib/gcc/arm-none-eabi/4.9.2/../../../../arm-none-eabi/lib/armv6k/fpu/libg.a(lib_a-strcpy.o)
 .bss           0x00295e74        0x0 /Users/spinal/devkitPro/devkitARM/bin/../lib/gcc/arm-none-eabi/4.9.2/../../../../arm-none-eabi/lib/armv6k/fpu/libg.a(lib_a-strlen.o)
 .bss           0x00295e74        0x0 /Users/spinal/devkitPro/devkitARM/bin/../lib/gcc/arm-none-eabi/4.9.2/../../../../arm-none-eabi/lib/armv6k/fpu/libg.a(lib_a-strncat.o)
 .bss           0x00295e74        0x0 /Users/spinal/devkitPro/devkitARM/bin/../lib/gcc/arm-none-eabi/4.9.2/../../../../arm-none-eabi/lib/armv6k/fpu/libg.a(lib_a-strncmp.o)
 .bss           0x00295e74        0x0 /Users/spinal/devkitPro/devkitARM/bin/../lib/gcc/arm-none-eabi/4.9.2/../../../../arm-none-eabi/lib/armv6k/fpu/libg.a(lib_a-strncpy.o)
 .bss           0x00295e74        0x0 /Users/spinal/devkitPro/devkitARM/bin/../lib/gcc/arm-none-eabi/4.9.2/../../../../arm-none-eabi/lib/armv6k/fpu/libg.a(lib_a-strtol.o)
 .bss           0x00295e74        0x0 /Users/spinal/devkitPro/devkitARM/bin/../lib/gcc/arm-none-eabi/4.9.2/../../../../arm-none-eabi/lib/armv6k/fpu/libg.a(lib_a-svfprintf.o)
 .bss           0x00295e74        0x0 /Users/spinal/devkitPro/devkitARM/bin/../lib/gcc/arm-none-eabi/4.9.2/../../../../arm-none-eabi/lib/armv6k/fpu/libg.a(lib_a-svfscanf.o)
 .bss           0x00295e74        0x0 /Users/spinal/devkitPro/devkitARM/bin/../lib/gcc/arm-none-eabi/4.9.2/../../../../arm-none-eabi/lib/armv6k/fpu/libg.a(lib_a-sysstat.o)
 .bss           0x00295e74        0x0 /Users/spinal/devkitPro/devkitARM/bin/../lib/gcc/arm-none-eabi/4.9.2/../../../../arm-none-eabi/lib/armv6k/fpu/libg.a(lib_a-syswrite.o)
 .bss           0x00295e74        0x0 /Users/spinal/devkitPro/devkitARM/bin/../lib/gcc/arm-none-eabi/4.9.2/../../../../arm-none-eabi/lib/armv6k/fpu/libg.a(lib_a-vfiprintf.o)
 .bss           0x00295e74        0x0 /Users/spinal/devkitPro/devkitARM/bin/../lib/gcc/arm-none-eabi/4.9.2/../../../../arm-none-eabi/lib/armv6k/fpu/libg.a(lib_a-vfprintf.o)
 .bss           0x00295e74        0x0 /Users/spinal/devkitPro/devkitARM/bin/../lib/gcc/arm-none-eabi/4.9.2/../../../../arm-none-eabi/lib/armv6k/fpu/libg.a(lib_a-vfscanf.o)
 .bss           0x00295e74        0x0 /Users/spinal/devkitPro/devkitARM/bin/../lib/gcc/arm-none-eabi/4.9.2/../../../../arm-none-eabi/lib/armv6k/fpu/libg.a(lib_a-wbuf.o)
 .bss           0x00295e74        0x0 /Users/spinal/devkitPro/devkitARM/bin/../lib/gcc/arm-none-eabi/4.9.2/../../../../arm-none-eabi/lib/armv6k/fpu/libg.a(lib_a-wcrtomb.o)
 .bss           0x00295e74        0x0 /Users/spinal/devkitPro/devkitARM/bin/../lib/gcc/arm-none-eabi/4.9.2/../../../../arm-none-eabi/lib/armv6k/fpu/libg.a(lib_a-wcsrtombs.o)
 .bss           0x00295e74        0x0 /Users/spinal/devkitPro/devkitARM/bin/../lib/gcc/arm-none-eabi/4.9.2/../../../../arm-none-eabi/lib/armv6k/fpu/libg.a(lib_a-wctomb_r.o)
 .bss           0x00295e74        0x0 /Users/spinal/devkitPro/devkitARM/bin/../lib/gcc/arm-none-eabi/4.9.2/../../../../arm-none-eabi/lib/armv6k/fpu/libg.a(lib_a-wsetup.o)
 .bss           0x00295e74        0x0 /Users/spinal/devkitPro/devkitARM/bin/../lib/gcc/arm-none-eabi/4.9.2/../../../../arm-none-eabi/lib/armv6k/fpu/libg.a(lib_a-ctype_.o)
 .bss           0x00295e74        0x0 /Users/spinal/devkitPro/devkitARM/bin/../lib/gcc/arm-none-eabi/4.9.2/../../../../arm-none-eabi/lib/armv6k/fpu/libg.a(lib_a-dtoa.o)
 .bss           0x00295e74        0x0 /Users/spinal/devkitPro/devkitARM/bin/../lib/gcc/arm-none-eabi/4.9.2/../../../../arm-none-eabi/lib/armv6k/fpu/libg.a(lib_a-flags.o)
 .bss           0x00295e74        0x0 /Users/spinal/devkitPro/devkitARM/bin/../lib/gcc/arm-none-eabi/4.9.2/../../../../arm-none-eabi/lib/armv6k/fpu/libg.a(lib_a-fputwc.o)
 .bss           0x00295e74        0x0 /Users/spinal/devkitPro/devkitARM/bin/../lib/gcc/arm-none-eabi/4.9.2/../../../../arm-none-eabi/lib/armv6k/fpu/libg.a(lib_a-iswspace.o)
 .bss           0x00295e74        0x0 /Users/spinal/devkitPro/devkitARM/bin/../lib/gcc/arm-none-eabi/4.9.2/../../../../arm-none-eabi/lib/armv6k/fpu/libg.a(lib_a-jp2uc.o)
 .bss           0x00295e74        0x0 /Users/spinal/devkitPro/devkitARM/bin/../lib/gcc/arm-none-eabi/4.9.2/../../../../arm-none-eabi/lib/armv6k/fpu/libg.a(lib_a-locale.o)
 .bss           0x00295e74        0x0 /Users/spinal/devkitPro/devkitARM/bin/../lib/gcc/arm-none-eabi/4.9.2/../../../../arm-none-eabi/lib/armv6k/fpu/libg.a(lib_a-mbrtowc.o)
 .bss           0x00295e74        0x0 /Users/spinal/devkitPro/devkitARM/bin/../lib/gcc/arm-none-eabi/4.9.2/../../../../arm-none-eabi/lib/armv6k/fpu/libg.a(lib_a-mbtowc_r.o)
 .bss           0x00295e74        0x0 /Users/spinal/devkitPro/devkitARM/bin/../lib/gcc/arm-none-eabi/4.9.2/../../../../arm-none-eabi/lib/armv6k/fpu/libg.a(lib_a-mprec.o)
 .bss           0x00295e74        0x0 /Users/spinal/devkitPro/devkitARM/bin/../lib/gcc/arm-none-eabi/4.9.2/../../../../arm-none-eabi/lib/armv6k/fpu/libg.a(lib_a-s_fpclassify.o)
 .bss           0x00295e74        0x0 /Users/spinal/devkitPro/devkitARM/bin/../lib/gcc/arm-none-eabi/4.9.2/../../../../arm-none-eabi/lib/armv6k/fpu/libg.a(lib_a-s_frexp.o)
 .bss           0x00295e74        0x0 /Users/spinal/devkitPro/devkitARM/bin/../lib/gcc/arm-none-eabi/4.9.2/../../../../arm-none-eabi/lib/armv6k/fpu/libg.a(lib_a-sccl.o)
 .bss           0x00295e74        0x0 /Users/spinal/devkitPro/devkitARM/bin/../lib/gcc/arm-none-eabi/4.9.2/../../../../arm-none-eabi/lib/armv6k/fpu/libg.a(lib_a-sf_nan.o)
 .bss           0x00295e74        0x0 /Users/spinal/devkitPro/devkitARM/bin/../lib/gcc/arm-none-eabi/4.9.2/../../../../arm-none-eabi/lib/armv6k/fpu/libg.a(lib_a-stpncpy.o)
 .bss           0x00295e74        0x0 /Users/spinal/devkitPro/devkitARM/bin/../lib/gcc/arm-none-eabi/4.9.2/../../../../arm-none-eabi/lib/armv6k/fpu/libg.a(lib_a-strcat.o)
 .bss           0x00295e74        0x0 /Users/spinal/devkitPro/devkitARM/bin/../lib/gcc/arm-none-eabi/4.9.2/../../../../arm-none-eabi/lib/armv6k/fpu/libg.a(lib_a-strlcpy.o)
 .bss           0x00295e74        0x0 /Users/spinal/devkitPro/devkitARM/bin/../lib/gcc/arm-none-eabi/4.9.2/../../../../arm-none-eabi/lib/armv6k/fpu/libg.a(lib_a-strncasecmp.o)
 .bss           0x00295e74        0x0 /Users/spinal/devkitPro/devkitARM/bin/../lib/gcc/arm-none-eabi/4.9.2/../../../../arm-none-eabi/lib/armv6k/fpu/libg.a(lib_a-strtod.o)
 .bss           0x00295e74        0x0 /Users/spinal/devkitPro/devkitARM/bin/../lib/gcc/arm-none-eabi/4.9.2/../../../../arm-none-eabi/lib/armv6k/fpu/libg.a(lib_a-strtoll_r.o)
 .bss           0x00295e74        0x0 /Users/spinal/devkitPro/devkitARM/bin/../lib/gcc/arm-none-eabi/4.9.2/../../../../arm-none-eabi/lib/armv6k/fpu/libg.a(lib_a-strtoul.o)
 .bss           0x00295e74        0x0 /Users/spinal/devkitPro/devkitARM/bin/../lib/gcc/arm-none-eabi/4.9.2/../../../../arm-none-eabi/lib/armv6k/fpu/libg.a(lib_a-strtoull_r.o)
 .bss           0x00295e74        0x0 /Users/spinal/devkitPro/devkitARM/bin/../lib/gcc/arm-none-eabi/4.9.2/../../../../arm-none-eabi/lib/armv6k/fpu/libg.a(lib_a-svfiprintf.o)
 .bss           0x00295e74        0x0 /Users/spinal/devkitPro/devkitARM/bin/../lib/gcc/arm-none-eabi/4.9.2/../../../../arm-none-eabi/lib/armv6k/fpu/libg.a(lib_a-svfiscanf.o)
 .bss           0x00295e74        0x0 /Users/spinal/devkitPro/devkitARM/bin/../lib/gcc/arm-none-eabi/4.9.2/../../../../arm-none-eabi/lib/armv6k/fpu/libg.a(lib_a-ungetc.o)
 .bss           0x00295e74        0x0 /Users/spinal/devkitPro/devkitARM/bin/../lib/gcc/arm-none-eabi/4.9.2/../../../../arm-none-eabi/lib/armv6k/fpu/libg.a(lib_a-wcsnrtombs.o)
 .bss           0x00295e74        0x0 /Users/spinal/devkitPro/devkitARM/bin/../lib/gcc/arm-none-eabi/4.9.2/../../../../arm-none-eabi/lib/armv6k/fpu/libg.a(lib_a-callocr.o)
 .bss           0x00295e74        0x0 /Users/spinal/devkitPro/devkitARM/bin/../lib/gcc/arm-none-eabi/4.9.2/../../../../arm-none-eabi/lib/armv6k/fpu/libg.a(lib_a-gdtoa-gethex.o)
 .bss           0x00295e74        0x0 /Users/spinal/devkitPro/devkitARM/bin/../lib/gcc/arm-none-eabi/4.9.2/../../../../arm-none-eabi/lib/armv6k/fpu/libg.a(lib_a-gdtoa-hexnan.o)
 .bss           0x00295e74        0x0 /Users/spinal/devkitPro/devkitARM/bin/../lib/gcc/arm-none-eabi/4.9.2/../../../../arm-none-eabi/lib/armv6k/fpu/libg.a(lib_a-getenv_r.o)
 .bss           0x00295e74        0x0 /Users/spinal/devkitPro/devkitARM/bin/../lib/gcc/arm-none-eabi/4.9.2/../../../../arm-none-eabi/lib/armv6k/fpu/libg.a(lib_a-environ.o)
 .bss           0x00295e74        0x0 /Users/spinal/devkitPro/devkitARM/bin/../lib/gcc/arm-none-eabi/4.9.2/../../../../arm-none-eabi/lib/armv6k/fpu/libg.a(lib_a-envlock.o)
 .bss           0x00295e74        0x0 /Users/spinal/devkitPro/devkitARM/bin/../lib/gcc/arm-none-eabi/4.9.2/../../../../arm-none-eabi/lib/armv6k/fpu/libsysbase.a(iosupport.o)
 .bss           0x00295e74        0x0 /Users/spinal/devkitPro/devkitARM/bin/../lib/gcc/arm-none-eabi/4.9.2/../../../../arm-none-eabi/lib/armv6k/fpu/libsysbase.a(close.o)
 .bss           0x00295e74        0x0 /Users/spinal/devkitPro/devkitARM/bin/../lib/gcc/arm-none-eabi/4.9.2/../../../../arm-none-eabi/lib/armv6k/fpu/libsysbase.a(fstat.o)
 .bss           0x00295e74        0x0 /Users/spinal/devkitPro/devkitARM/bin/../lib/gcc/arm-none-eabi/4.9.2/../../../../arm-none-eabi/lib/armv6k/fpu/libsysbase.a(getpid.o)
 .bss           0x00295e74        0x0 /Users/spinal/devkitPro/devkitARM/bin/../lib/gcc/arm-none-eabi/4.9.2/../../../../arm-none-eabi/lib/armv6k/fpu/libsysbase.a(isatty.o)
 .bss           0x00295e74        0x0 /Users/spinal/devkitPro/devkitARM/bin/../lib/gcc/arm-none-eabi/4.9.2/../../../../arm-none-eabi/lib/armv6k/fpu/libsysbase.a(kill.o)
 .bss           0x00295e74        0x0 /Users/spinal/devkitPro/devkitARM/bin/../lib/gcc/arm-none-eabi/4.9.2/../../../../arm-none-eabi/lib/armv6k/fpu/libsysbase.a(lseek.o)
 .bss           0x00295e74        0x0 /Users/spinal/devkitPro/devkitARM/bin/../lib/gcc/arm-none-eabi/4.9.2/../../../../arm-none-eabi/lib/armv6k/fpu/libsysbase.a(open.o)
 .bss           0x00295e74        0x0 /Users/spinal/devkitPro/devkitARM/bin/../lib/gcc/arm-none-eabi/4.9.2/../../../../arm-none-eabi/lib/armv6k/fpu/libsysbase.a(read.o)
 .bss           0x00295e74        0x4 /Users/spinal/devkitPro/devkitARM/bin/../lib/gcc/arm-none-eabi/4.9.2/../../../../arm-none-eabi/lib/armv6k/fpu/libsysbase.a(sbrk.o)
 .bss           0x00295e78        0x0 /Users/spinal/devkitPro/devkitARM/bin/../lib/gcc/arm-none-eabi/4.9.2/../../../../arm-none-eabi/lib/armv6k/fpu/libsysbase.a(stat.o)
 .bss           0x00295e78        0x0 /Users/spinal/devkitPro/devkitARM/bin/../lib/gcc/arm-none-eabi/4.9.2/../../../../arm-none-eabi/lib/armv6k/fpu/libsysbase.a(unlink.o)
 .bss           0x00295e78        0x0 /Users/spinal/devkitPro/devkitARM/bin/../lib/gcc/arm-none-eabi/4.9.2/../../../../arm-none-eabi/lib/armv6k/fpu/libsysbase.a(write.o)
 .bss           0x00295e78        0x0 /Users/spinal/devkitPro/devkitARM/bin/../lib/gcc/arm-none-eabi/4.9.2/../../../../arm-none-eabi/lib/armv6k/fpu/libsysbase.a(_exit.o)
 .bss           0x00295e78        0x8 /Users/spinal/devkitPro/devkitARM/bin/../lib/gcc/arm-none-eabi/4.9.2/../../../../arm-none-eabi/lib/armv6k/fpu/libsysbase.a(malloc_vars.o)
                0x00295e78                fake_heap_start
                0x00295e7c                fake_heap_end
 .bss           0x00295e80     0x1000 /Users/spinal/devkitPro/devkitARM/bin/../lib/gcc/arm-none-eabi/4.9.2/../../../../arm-none-eabi/lib/armv6k/fpu/libsysbase.a(chdir.o)
 .bss           0x00296e80        0x0 /Users/spinal/devkitPro/devkitARM/bin/../lib/gcc/arm-none-eabi/4.9.2/../../../../arm-none-eabi/lib/armv6k/fpu/libsysbase.a(flock.o)
 .bss           0x00296e80       0x40 /Users/spinal/devkitPro/devkitARM/bin/../lib/gcc/arm-none-eabi/4.9.2/../../../../arm-none-eabi/lib/armv6k/fpu/libsysbase.a(syscall_support.o)
                0x00296e80                __syscalls
 .bss           0x00296ec0        0x0 /Users/spinal/devkitPro/devkitARM/bin/../lib/gcc/arm-none-eabi/4.9.2/../../../../arm-none-eabi/lib/armv6k/fpu/libsysbase.a(handle_manager.o)
 .bss           0x00296ec0        0x0 /Users/spinal/devkitPro/devkitARM/bin/../lib/gcc/arm-none-eabi/4.9.2/../../../../arm-none-eabi/lib/armv6k/fpu/libsysbase.a(dirent.o)
 .bss           0x00296ec0        0x0 /Users/spinal/devkitPro/devkitARM/bin/../lib/gcc/arm-none-eabi/4.9.2/../../../../arm-none-eabi/lib/armv6k/fpu/libsysbase.a(getreent.o)
 .bss           0x00296ec0        0x0 /Users/spinal/devkitPro/devkitARM/bin/../lib/gcc/arm-none-eabi/4.9.2/armv6k/fpu/libgcc.a(_divsi3.o)
 .bss           0x00296ec0        0x0 /Users/spinal/devkitPro/devkitARM/bin/../lib/gcc/arm-none-eabi/4.9.2/armv6k/fpu/libgcc.a(_aeabi_uldivmod.o)
 .bss           0x00296ec0        0x0 /Users/spinal/devkitPro/devkitARM/bin/../lib/gcc/arm-none-eabi/4.9.2/armv6k/fpu/libgcc.a(bpabi.o)
 .bss           0x00296ec0        0x0 /Users/spinal/devkitPro/devkitARM/bin/../lib/gcc/arm-none-eabi/4.9.2/armv6k/fpu/libgcc.a(_divdi3.o)
 .bss           0x00296ec0        0x0 /Users/spinal/devkitPro/devkitARM/bin/../lib/gcc/arm-none-eabi/4.9.2/armv6k/fpu/libgcc.a(_udivdi3.o)
 .bss           0x00296ec0        0x0 /Users/spinal/devkitPro/devkitARM/bin/../lib/gcc/arm-none-eabi/4.9.2/../../../../arm-none-eabi/lib/armv6k/fpu/libg.a(lib_a-errno.o)
 .bss           0x00296ec0        0x0 /Users/spinal/devkitPro/devkitARM/bin/../lib/gcc/arm-none-eabi/4.9.2/../../../../arm-none-eabi/lib/armv6k/fpu/libg.a(lib_a-strnlen.o)
 .bss           0x00296ec0        0x0 /Users/spinal/devkitPro/devkitARM/bin/../lib/gcc/arm-none-eabi/4.9.2/../../../../arm-none-eabi/lib/armv6k/fpu/libg.a(lib_a-strrchr.o)
 .bss           0x00296ec0        0x0 /Users/spinal/devkitPro/devkitARM/bin/../lib/gcc/arm-none-eabi/4.9.2/armv6k/fpu/crtend.o
 .bss           0x00296ec0        0x0 /Users/spinal/devkitPro/devkitARM/bin/../lib/gcc/arm-none-eabi/4.9.2/armv6k/fpu/crtn.o
 *(.bss.*)
 .bss._ZL15dependents_used
                0x00296ec0        0x4 /Users/spinal/devkitPro/devkitARM/bin/../lib/gcc/arm-none-eabi/4.9.2/../../../../arm-none-eabi/lib/armv6k/fpu/libstdc++.a(eh_alloc.o)
 *fill*         0x00296ec4        0x4 
 .bss._ZL17dependents_buffer
                0x00296ec8      0x1e0 /Users/spinal/devkitPro/devkitARM/bin/../lib/gcc/arm-none-eabi/4.9.2/../../../../arm-none-eabi/lib/armv6k/fpu/libstdc++.a(eh_alloc.o)
 .bss._ZL14emergency_used
                0x002970a8        0x4 /Users/spinal/devkitPro/devkitARM/bin/../lib/gcc/arm-none-eabi/4.9.2/../../../../arm-none-eabi/lib/armv6k/fpu/libstdc++.a(eh_alloc.o)
 *fill*         0x002970ac        0x4 
 .bss._ZL16emergency_buffer
                0x002970b0      0x800 /Users/spinal/devkitPro/devkitARM/bin/../lib/gcc/arm-none-eabi/4.9.2/../../../../arm-none-eabi/lib/armv6k/fpu/libstdc++.a(eh_alloc.o)
 .bss._ZL10eh_globals
                0x002978b0        0xc /Users/spinal/devkitPro/devkitARM/bin/../lib/gcc/arm-none-eabi/4.9.2/../../../../arm-none-eabi/lib/armv6k/fpu/libstdc++.a(eh_globals.o)
 .bss._ZN12_GLOBAL__N_113__new_handlerE
                0x002978bc        0x4 /Users/spinal/devkitPro/devkitARM/bin/../lib/gcc/arm-none-eabi/4.9.2/../../../../arm-none-eabi/lib/armv6k/fpu/libstdc++.a(new_handler.o)
 .bss._ZZN9__gnu_cxx27__verbose_terminate_handlerEvE11terminating
                0x002978c0        0x1 /Users/spinal/devkitPro/devkitARM/bin/../lib/gcc/arm-none-eabi/4.9.2/../../../../arm-none-eabi/lib/armv6k/fpu/libstdc++.a(vterminate.o)
 *fill*         0x002978c1        0x3 
 .bss.__malloc_max_total_mem
                0x002978c4        0x4 /Users/spinal/devkitPro/devkitARM/bin/../lib/gcc/arm-none-eabi/4.9.2/../../../../arm-none-eabi/lib/armv6k/fpu/libg.a(lib_a-mallocr.o)
                0x002978c4                __malloc_max_total_mem
 .bss.__malloc_max_sbrked_mem
                0x002978c8        0x4 /Users/spinal/devkitPro/devkitARM/bin/../lib/gcc/arm-none-eabi/4.9.2/../../../../arm-none-eabi/lib/armv6k/fpu/libg.a(lib_a-mallocr.o)
                0x002978c8                __malloc_max_sbrked_mem
 .bss.__malloc_top_pad
                0x002978cc        0x4 /Users/spinal/devkitPro/devkitARM/bin/../lib/gcc/arm-none-eabi/4.9.2/../../../../arm-none-eabi/lib/armv6k/fpu/libg.a(lib_a-mallocr.o)
                0x002978cc                __malloc_top_pad
 .bss.__malloc_current_mallinfo
                0x002978d0       0x28 /Users/spinal/devkitPro/devkitARM/bin/../lib/gcc/arm-none-eabi/4.9.2/../../../../arm-none-eabi/lib/armv6k/fpu/libg.a(lib_a-mallocr.o)
                0x002978d0                __malloc_current_mallinfo
 .bss._PathLocale
                0x002978f8        0x4 /Users/spinal/devkitPro/devkitARM/bin/../lib/gcc/arm-none-eabi/4.9.2/../../../../arm-none-eabi/lib/armv6k/fpu/libg.a(lib_a-locale.o)
                0x002978f8                _PathLocale
 .bss.__nlocale_changed
                0x002978fc        0x4 /Users/spinal/devkitPro/devkitARM/bin/../lib/gcc/arm-none-eabi/4.9.2/../../../../arm-none-eabi/lib/armv6k/fpu/libg.a(lib_a-locale.o)
                0x002978fc                __nlocale_changed
 .bss.__mlocale_changed
                0x00297900        0x4 /Users/spinal/devkitPro/devkitARM/bin/../lib/gcc/arm-none-eabi/4.9.2/../../../../arm-none-eabi/lib/armv6k/fpu/libg.a(lib_a-locale.o)
                0x00297900                __mlocale_changed
 .bss.lc_ctype_cjk_lang
                0x00297904        0x4 /Users/spinal/devkitPro/devkitARM/bin/../lib/gcc/arm-none-eabi/4.9.2/../../../../arm-none-eabi/lib/armv6k/fpu/libg.a(lib_a-locale.o)
 .bss.new_categories
                0x00297908       0xe0 /Users/spinal/devkitPro/devkitARM/bin/../lib/gcc/arm-none-eabi/4.9.2/../../../../arm-none-eabi/lib/armv6k/fpu/libg.a(lib_a-locale.o)
 .bss.current_locale_string
                0x002979e8       0xe8 /Users/spinal/devkitPro/devkitARM/bin/../lib/gcc/arm-none-eabi/4.9.2/../../../../arm-none-eabi/lib/armv6k/fpu/libg.a(lib_a-locale.o)
 .bss.saved_categories
                0x00297ad0       0xe0 /Users/spinal/devkitPro/devkitARM/bin/../lib/gcc/arm-none-eabi/4.9.2/../../../../arm-none-eabi/lib/armv6k/fpu/libg.a(lib_a-locale.o)
 .bss.initial_env
                0x00297bb0        0x4 /Users/spinal/devkitPro/devkitARM/bin/../lib/gcc/arm-none-eabi/4.9.2/../../../../arm-none-eabi/lib/armv6k/fpu/libg.a(lib_a-environ.o)
 *(.gnu.linkonce.b*)
 *(COMMON)
 COMMON         0x00297bb4       0x60 /Users/spinal/devkitPro/libctru/lib/libctru.a(gfx.o)
                0x00297bb4                gfxBottomFramebuffers
                0x00297bbc                gspSharedMemHandle
                0x00297bc0                bottomFramebufferInfo
                0x00297bdc                gspEvent
                0x00297be0                gfxTopLeftFramebuffers
                0x00297be8                gfxTopRightFramebuffers
                0x00297bf0                topFramebufferInfo
                0x00297c0c                gfxThreadID
                0x00297c10                gfxSharedMemory
 *fill*         0x00297c14        0x4 
 COMMON         0x00297c18     0x2022 /Users/spinal/devkitPro/libctru/lib/libctru.a(apt.o)
                0x00297c18                aptEventHandlerThread
                0x00297c1c                aptParameters
                0x00298c20                aptEventHandlerStack
                0x00299c20                aptuHandle
                0x00299c24                aptEvents
                0x00299c30                aptStatusMutex
                0x00299c34                aptLockHandle
                0x00299c38                currentAppId
 *fill*         0x00299c3a        0x6 
 COMMON         0x00299c40     0x103d /Users/spinal/devkitPro/libctru/lib/libctru.a(gsp.o)
                0x00299c40                gspEventStack
                0x0029ac40                gspEventThread
                0x0029ac44                gspEventCounts
                0x0029ac60                gspEvents
                0x0029ac7c                gspRunEvents
 *fill*         0x0029ac7d        0x3 
 COMMON         0x0029ac80        0x4 /Users/spinal/devkitPro/libctru/lib/libctru.a(gx.o)
                0x0029ac80                gxCmdBuf
 COMMON         0x0029ac84       0x20 /Users/spinal/devkitPro/libctru/lib/libctru.a(hid.o)
                0x0029ac84                hidMemHandle
                0x0029ac88                hidHandle
                0x0029ac8c                hidSharedMem
                0x0029ac90                hidEvents
 COMMON         0x0029aca4       0x10 /Users/spinal/devkitPro/libctru/lib/libctru.a(irrst.o)
                0x0029aca4                irrstHandle
                0x0029aca8                irrstEvent
                0x0029acac                irrstMemHandle
                0x0029acb0                irrstSharedMem
 COMMON         0x0029acb4        0x8 /Users/spinal/devkitPro/libctru/lib/libctru.a(initArgv.o)
                0x0029acb4                __system_argv
                0x0029acb8                __system_argc
 COMMON         0x0029acbc        0x4 /Users/spinal/devkitPro/libctru/lib/libctru.a(initSystem.o)
                0x0029acbc                __system_retAddr
 COMMON         0x0029acc0        0x8 /Users/spinal/devkitPro/libctru/lib/libctru.a(allocateHeaps.o)
                0x0029acc0                __heapBase
                0x0029acc4                __linear_heap
                0x0029acc8                . = ALIGN (0x4)
                0x0029acc8                __bss_end__ = .
                0x0029acc8                __end__ = ABSOLUTE (.)

/DISCARD/
 *(.group .comment .note)

.stab
 *(.stab)

.stabstr
 *(.stabstr)

.stab.excl
 *(.stab.excl)

.stab.exclstr
 *(.stab.exclstr)

.stab.index
 *(.stab.index)

.stab.indexstr
 *(.stab.indexstr)

.debug
 *(.debug)

.line
 *(.line)

.debug_srcinfo
 *(.debug_srcinfo)

.debug_sfnames
 *(.debug_sfnames)

.debug_aranges  0x00000000      0x658
 *(.debug_aranges)
 .debug_aranges
                0x00000000       0x28 1541d64.o
 .debug_aranges
                0x00000028       0x20 1541job.o
 .debug_aranges
                0x00000048       0x20 1541t64.o
 .debug_aranges
                0x00000068       0x20 C64.o
 .debug_aranges
                0x00000088       0x20 CIA.o
 .debug_aranges
                0x000000a8       0x20 CPU1541.o
 .debug_aranges
                0x000000c8       0x28 CPUC64.o
 .debug_aranges
                0x000000f0       0x18 CPU_common.o
 .debug_aranges
                0x00000108       0x20 Display.o
 .debug_aranges
                0x00000128       0x20 IEC.o
 .debug_aranges
                0x00000148       0x28 Prefs.o
 .debug_aranges
                0x00000170       0x20 REU.o
 .debug_aranges
                0x00000190       0x20 SAM.o
 .debug_aranges
                0x000001b0       0x20 SID.o
 .debug_aranges
                0x000001d0       0x20 VIC.o
 .debug_aranges
                0x000001f0       0x28 main.o
 .debug_aranges
                0x00000218       0x20 sound9.o
 .debug_aranges
                0x00000238       0x20 /Users/spinal/devkitPro/libctru/lib/libctru.a(gfx.o)
 .debug_aranges
                0x00000258       0x20 /Users/spinal/devkitPro/libctru/lib/libctru.a(srv.o)
 .debug_aranges
                0x00000278       0x20 /Users/spinal/devkitPro/libctru/lib/libctru.a(apt.o)
 .debug_aranges
                0x00000298       0x20 /Users/spinal/devkitPro/libctru/lib/libctru.a(fs.o)
 .debug_aranges
                0x000002b8       0x20 /Users/spinal/devkitPro/libctru/lib/libctru.a(gsp.o)
 .debug_aranges
                0x000002d8       0x20 /Users/spinal/devkitPro/libctru/lib/libctru.a(gx.o)
 .debug_aranges
                0x000002f8       0x20 /Users/spinal/devkitPro/libctru/lib/libctru.a(hid.o)
 .debug_aranges
                0x00000318       0x20 /Users/spinal/devkitPro/libctru/lib/libctru.a(irrst.o)
 .debug_aranges
                0x00000338       0x20 /Users/spinal/devkitPro/libctru/lib/libctru.a(initArgv.o)
 .debug_aranges
                0x00000358       0x20 /Users/spinal/devkitPro/libctru/lib/libctru.a(initSystem.o)
 .debug_aranges
                0x00000378       0x20 /Users/spinal/devkitPro/libctru/lib/libctru.a(svc.o)
 .debug_aranges
                0x00000398       0x20 /Users/spinal/devkitPro/libctru/lib/libctru.a(stack_adjust.o)
 .debug_aranges
                0x000003b8       0x20 /Users/spinal/devkitPro/libctru/lib/libctru.a(linear.o)
 .debug_aranges
                0x000003d8       0x20 /Users/spinal/devkitPro/libctru/lib/libctru.a(mem_pool.o)
 .debug_aranges
                0x000003f8       0x20 /Users/spinal/devkitPro/libctru/lib/libctru.a(vram.o)
 .debug_aranges
                0x00000418       0x20 /Users/spinal/devkitPro/libctru/lib/libctru.a(os.o)
 .debug_aranges
                0x00000438       0x20 /Users/spinal/devkitPro/libctru/lib/libctru.a(rbtree_find.o)
 .debug_aranges
                0x00000458       0x20 /Users/spinal/devkitPro/libctru/lib/libctru.a(rbtree_init.o)
 .debug_aranges
                0x00000478       0x20 /Users/spinal/devkitPro/libctru/lib/libctru.a(rbtree_insert.o)
 .debug_aranges
                0x00000498       0x20 /Users/spinal/devkitPro/libctru/lib/libctru.a(rbtree_remove.o)
 .debug_aranges
                0x000004b8       0x20 /Users/spinal/devkitPro/libctru/lib/libctru.a(rbtree_rotate.o)
 .debug_aranges
                0x000004d8       0x20 /Users/spinal/devkitPro/libctru/lib/libctru.a(allocateHeaps.o)
 .debug_aranges
                0x000004f8       0x20 /Users/spinal/devkitPro/libctru/lib/libctru.a(appExit.o)
 .debug_aranges
                0x00000518       0x20 /Users/spinal/devkitPro/libctru/lib/libctru.a(appInit.o)
 .debug_aranges
                0x00000538       0x20 /Users/spinal/devkitPro/libctru/lib/libctru.a(ctru_exit.o)
 .debug_aranges
                0x00000558       0x20 /Users/spinal/devkitPro/libctru/lib/libctru.a(sdmc_dev.o)
 .debug_aranges
                0x00000578       0x20 /Users/spinal/devkitPro/libctru/lib/libctru.a(rbtree_iterator.o)
 .debug_aranges
                0x00000598       0x20 /Users/spinal/devkitPro/libctru/lib/libctru.a(decode_utf8.o)
 .debug_aranges
                0x000005b8       0x20 /Users/spinal/devkitPro/libctru/lib/libctru.a(utf16_to_utf8.o)
 .debug_aranges
                0x000005d8       0x20 /Users/spinal/devkitPro/libctru/lib/libctru.a(utf8_to_utf16.o)
 .debug_aranges
                0x000005f8       0x20 /Users/spinal/devkitPro/libctru/lib/libctru.a(decode_utf16.o)
 .debug_aranges
                0x00000618       0x20 /Users/spinal/devkitPro/libctru/lib/libctru.a(encode_utf16.o)
 .debug_aranges
                0x00000638       0x20 /Users/spinal/devkitPro/libctru/lib/libctru.a(encode_utf8.o)

.debug_pubnames
 *(.debug_pubnames)

.debug_info     0x00000000    0x57ae8
 *(.debug_info)
 .debug_info    0x00000000     0x97fe 1541d64.o
 .debug_info    0x000097fe     0x2077 1541job.o
 .debug_info    0x0000b875     0x3634 1541t64.o
 .debug_info    0x0000eea9     0x6f10 C64.o
 .debug_info    0x00015db9     0x3bb9 CIA.o
 .debug_info    0x00019972     0x5cb1 CPU1541.o
 .debug_info    0x0001f623     0x9d9c CPUC64.o
 .debug_info    0x000293bf      0x919 CPU_common.o
 .debug_info    0x00029cd8     0x3b30 Display.o
 .debug_info    0x0002d808     0x3a92 IEC.o
 .debug_info    0x0003129a     0x2432 Prefs.o
 .debug_info    0x000336cc     0x214a REU.o
 .debug_info    0x00035816     0x7d78 SAM.o
 .debug_info    0x0003d58e     0x24eb SID.o
 .debug_info    0x0003fa79     0x47c4 VIC.o
 .debug_info    0x0004423d     0x23cb main.o
 .debug_info    0x00046608      0x10c sound9.o
 .debug_info    0x00046714      0xd7a /Users/spinal/devkitPro/libctru/lib/libctru.a(gfx.o)
 .debug_info    0x0004748e      0x828 /Users/spinal/devkitPro/libctru/lib/libctru.a(srv.o)
 .debug_info    0x00047cb6     0x35ed /Users/spinal/devkitPro/libctru/lib/libctru.a(apt.o)
 .debug_info    0x0004b2a3     0x1706 /Users/spinal/devkitPro/libctru/lib/libctru.a(fs.o)
 .debug_info    0x0004c9a9     0x1179 /Users/spinal/devkitPro/libctru/lib/libctru.a(gsp.o)
 .debug_info    0x0004db22      0x4e7 /Users/spinal/devkitPro/libctru/lib/libctru.a(gx.o)
 .debug_info    0x0004e009      0xe22 /Users/spinal/devkitPro/libctru/lib/libctru.a(hid.o)
 .debug_info    0x0004ee2b      0x779 /Users/spinal/devkitPro/libctru/lib/libctru.a(irrst.o)
 .debug_info    0x0004f5a4      0x165 /Users/spinal/devkitPro/libctru/lib/libctru.a(initArgv.o)
 .debug_info    0x0004f709      0xacb /Users/spinal/devkitPro/libctru/lib/libctru.a(initSystem.o)
 .debug_info    0x000501d4       0x67 /Users/spinal/devkitPro/libctru/lib/libctru.a(svc.o)
 .debug_info    0x0005023b       0x77 /Users/spinal/devkitPro/libctru/lib/libctru.a(stack_adjust.o)
 .debug_info    0x000502b2      0x975 /Users/spinal/devkitPro/libctru/lib/libctru.a(linear.o)
 .debug_info    0x00050c27      0x8ed /Users/spinal/devkitPro/libctru/lib/libctru.a(mem_pool.o)
 .debug_info    0x00051514      0x95f /Users/spinal/devkitPro/libctru/lib/libctru.a(vram.o)
 .debug_info    0x00051e73      0xc28 /Users/spinal/devkitPro/libctru/lib/libctru.a(os.o)
 .debug_info    0x00052a9b      0x1c9 /Users/spinal/devkitPro/libctru/lib/libctru.a(rbtree_find.o)
 .debug_info    0x00052c64      0x178 /Users/spinal/devkitPro/libctru/lib/libctru.a(rbtree_init.o)
 .debug_info    0x00052ddc      0x60c /Users/spinal/devkitPro/libctru/lib/libctru.a(rbtree_insert.o)
 .debug_info    0x000533e8      0x838 /Users/spinal/devkitPro/libctru/lib/libctru.a(rbtree_remove.o)
 .debug_info    0x00053c20      0x2ec /Users/spinal/devkitPro/libctru/lib/libctru.a(rbtree_rotate.o)
 .debug_info    0x00053f0c      0x269 /Users/spinal/devkitPro/libctru/lib/libctru.a(allocateHeaps.o)
 .debug_info    0x00054175      0x11b /Users/spinal/devkitPro/libctru/lib/libctru.a(appExit.o)
 .debug_info    0x00054290      0x15c /Users/spinal/devkitPro/libctru/lib/libctru.a(appInit.o)
 .debug_info    0x000543ec      0x26e /Users/spinal/devkitPro/libctru/lib/libctru.a(ctru_exit.o)
 .debug_info    0x0005465a     0x29f7 /Users/spinal/devkitPro/libctru/lib/libctru.a(sdmc_dev.o)
 .debug_info    0x00057051      0x2a3 /Users/spinal/devkitPro/libctru/lib/libctru.a(rbtree_iterator.o)
 .debug_info    0x000572f4      0x13c /Users/spinal/devkitPro/libctru/lib/libctru.a(decode_utf8.o)
 .debug_info    0x00057430      0x1d9 /Users/spinal/devkitPro/libctru/lib/libctru.a(utf16_to_utf8.o)
 .debug_info    0x00057609      0x1d9 /Users/spinal/devkitPro/libctru/lib/libctru.a(utf8_to_utf16.o)
 .debug_info    0x000577e2      0x11c /Users/spinal/devkitPro/libctru/lib/libctru.a(decode_utf16.o)
 .debug_info    0x000578fe       0xf5 /Users/spinal/devkitPro/libctru/lib/libctru.a(encode_utf16.o)
 .debug_info    0x000579f3       0xf5 /Users/spinal/devkitPro/libctru/lib/libctru.a(encode_utf8.o)

.debug_abbrev   0x00000000     0xb018
 *(.debug_abbrev)
 .debug_abbrev  0x00000000      0xbdd 1541d64.o
 .debug_abbrev  0x00000bdd      0x5e5 1541job.o
 .debug_abbrev  0x000011c2      0x881 1541t64.o
 .debug_abbrev  0x00001a43      0x98a C64.o
 .debug_abbrev  0x000023cd      0x6ef CIA.o
 .debug_abbrev  0x00002abc      0x6a7 CPU1541.o
 .debug_abbrev  0x00003163      0x825 CPUC64.o
 .debug_abbrev  0x00003988      0x24f CPU_common.o
 .debug_abbrev  0x00003bd7      0x8a7 Display.o
 .debug_abbrev  0x0000447e      0x8cf IEC.o
 .debug_abbrev  0x00004d4d      0x54a Prefs.o
 .debug_abbrev  0x00005297      0x58c REU.o
 .debug_abbrev  0x00005823      0x7dd SAM.o
 .debug_abbrev  0x00006000      0x7c7 SID.o
 .debug_abbrev  0x000067c7      0x6e9 VIC.o
 .debug_abbrev  0x00006eb0      0x6e6 main.o
 .debug_abbrev  0x00007596       0x8a sound9.o
 .debug_abbrev  0x00007620      0x320 /Users/spinal/devkitPro/libctru/lib/libctru.a(gfx.o)
 .debug_abbrev  0x00007940      0x26d /Users/spinal/devkitPro/libctru/lib/libctru.a(srv.o)
 .debug_abbrev  0x00007bad      0x4aa /Users/spinal/devkitPro/libctru/lib/libctru.a(apt.o)
 .debug_abbrev  0x00008057      0x2d3 /Users/spinal/devkitPro/libctru/lib/libctru.a(fs.o)
 .debug_abbrev  0x0000832a      0x393 /Users/spinal/devkitPro/libctru/lib/libctru.a(gsp.o)
 .debug_abbrev  0x000086bd       0xf9 /Users/spinal/devkitPro/libctru/lib/libctru.a(gx.o)
 .debug_abbrev  0x000087b6      0x35f /Users/spinal/devkitPro/libctru/lib/libctru.a(hid.o)
 .debug_abbrev  0x00008b15      0x2b5 /Users/spinal/devkitPro/libctru/lib/libctru.a(irrst.o)
 .debug_abbrev  0x00008dca       0xdb /Users/spinal/devkitPro/libctru/lib/libctru.a(initArgv.o)
 .debug_abbrev  0x00008ea5      0x1f4 /Users/spinal/devkitPro/libctru/lib/libctru.a(initSystem.o)
 .debug_abbrev  0x00009099       0x14 /Users/spinal/devkitPro/libctru/lib/libctru.a(svc.o)
 .debug_abbrev  0x000090ad       0x14 /Users/spinal/devkitPro/libctru/lib/libctru.a(stack_adjust.o)
 .debug_abbrev  0x000090c1      0x30f /Users/spinal/devkitPro/libctru/lib/libctru.a(linear.o)
 .debug_abbrev  0x000093d0      0x286 /Users/spinal/devkitPro/libctru/lib/libctru.a(mem_pool.o)
 .debug_abbrev  0x00009656      0x2fe /Users/spinal/devkitPro/libctru/lib/libctru.a(vram.o)
 .debug_abbrev  0x00009954      0x2cd /Users/spinal/devkitPro/libctru/lib/libctru.a(os.o)
 .debug_abbrev  0x00009c21       0xec /Users/spinal/devkitPro/libctru/lib/libctru.a(rbtree_find.o)
 .debug_abbrev  0x00009d0d       0xb0 /Users/spinal/devkitPro/libctru/lib/libctru.a(rbtree_init.o)
 .debug_abbrev  0x00009dbd      0x21d /Users/spinal/devkitPro/libctru/lib/libctru.a(rbtree_insert.o)
 .debug_abbrev  0x00009fda      0x205 /Users/spinal/devkitPro/libctru/lib/libctru.a(rbtree_remove.o)
 .debug_abbrev  0x0000a1df      0x170 /Users/spinal/devkitPro/libctru/lib/libctru.a(rbtree_rotate.o)
 .debug_abbrev  0x0000a34f       0xea /Users/spinal/devkitPro/libctru/lib/libctru.a(allocateHeaps.o)
 .debug_abbrev  0x0000a439       0xad /Users/spinal/devkitPro/libctru/lib/libctru.a(appExit.o)
 .debug_abbrev  0x0000a4e6       0xdc /Users/spinal/devkitPro/libctru/lib/libctru.a(appInit.o)
 .debug_abbrev  0x0000a5c2      0x116 /Users/spinal/devkitPro/libctru/lib/libctru.a(ctru_exit.o)
 .debug_abbrev  0x0000a6d8      0x3fa /Users/spinal/devkitPro/libctru/lib/libctru.a(sdmc_dev.o)
 .debug_abbrev  0x0000aad2      0x163 /Users/spinal/devkitPro/libctru/lib/libctru.a(rbtree_iterator.o)
 .debug_abbrev  0x0000ac35       0x7f /Users/spinal/devkitPro/libctru/lib/libctru.a(decode_utf8.o)
 .debug_abbrev  0x0000acb4      0x102 /Users/spinal/devkitPro/libctru/lib/libctru.a(utf16_to_utf8.o)
 .debug_abbrev  0x0000adb6      0x102 /Users/spinal/devkitPro/libctru/lib/libctru.a(utf8_to_utf16.o)
 .debug_abbrev  0x0000aeb8       0x8e /Users/spinal/devkitPro/libctru/lib/libctru.a(decode_utf16.o)
 .debug_abbrev  0x0000af46       0x69 /Users/spinal/devkitPro/libctru/lib/libctru.a(encode_utf16.o)
 .debug_abbrev  0x0000afaf       0x69 /Users/spinal/devkitPro/libctru/lib/libctru.a(encode_utf8.o)

.debug_line     0x00000000    0x114d4
 *(.debug_line)
 .debug_line    0x00000000      0xf76 1541d64.o
 .debug_line    0x00000f76      0x5c4 1541job.o
 .debug_line    0x0000153a      0x8f0 1541t64.o
 .debug_line    0x00001e2a      0xacb C64.o
 .debug_line    0x000028f5      0x6d2 CIA.o
 .debug_line    0x00002fc7     0x1ce3 CPU1541.o
 .debug_line    0x00004caa     0x34f8 CPUC64.o
 .debug_line    0x000081a2      0x292 CPU_common.o
 .debug_line    0x00008434      0x82e Display.o
 .debug_line    0x00008c62      0x856 IEC.o
 .debug_line    0x000094b8      0x58a Prefs.o
 .debug_line    0x00009a42      0x52f REU.o
 .debug_line    0x00009f71      0xead SAM.o
 .debug_line    0x0000ae1e      0x64b SID.o
 .debug_line    0x0000b469      0xd54 VIC.o
 .debug_line    0x0000c1bd        0x0 file.o
 .debug_line    0x0000c1bd      0x5c9 main.o
 .debug_line    0x0000c786       0x70 sound9.o
 .debug_line    0x0000c7f6      0x2cc /Users/spinal/devkitPro/libctru/lib/libctru.a(gfx.o)
 .debug_line    0x0000cac2      0x272 /Users/spinal/devkitPro/libctru/lib/libctru.a(srv.o)
 .debug_line    0x0000cd34      0x7ee /Users/spinal/devkitPro/libctru/lib/libctru.a(apt.o)
 .debug_line    0x0000d522      0x5eb /Users/spinal/devkitPro/libctru/lib/libctru.a(fs.o)
 .debug_line    0x0000db0d      0x387 /Users/spinal/devkitPro/libctru/lib/libctru.a(gsp.o)
 .debug_line    0x0000de94      0x1f9 /Users/spinal/devkitPro/libctru/lib/libctru.a(gx.o)
 .debug_line    0x0000e08d      0x2c1 /Users/spinal/devkitPro/libctru/lib/libctru.a(hid.o)
 .debug_line    0x0000e34e      0x230 /Users/spinal/devkitPro/libctru/lib/libctru.a(irrst.o)
 .debug_line    0x0000e57e      0x173 /Users/spinal/devkitPro/libctru/lib/libctru.a(initArgv.o)
 .debug_line    0x0000e6f1      0x13e /Users/spinal/devkitPro/libctru/lib/libctru.a(initSystem.o)
 .debug_line    0x0000e82f      0x166 /Users/spinal/devkitPro/libctru/lib/libctru.a(svc.o)
 .debug_line    0x0000e995       0x7b /Users/spinal/devkitPro/libctru/lib/libctru.a(stack_adjust.o)
 .debug_line    0x0000ea10      0x25a /Users/spinal/devkitPro/libctru/lib/libctru.a(linear.o)
 .debug_line    0x0000ec6a      0x2f9 /Users/spinal/devkitPro/libctru/lib/libctru.a(mem_pool.o)
 .debug_line    0x0000ef63      0x257 /Users/spinal/devkitPro/libctru/lib/libctru.a(vram.o)
 .debug_line    0x0000f1ba      0x263 /Users/spinal/devkitPro/libctru/lib/libctru.a(os.o)
 .debug_line    0x0000f41d      0x199 /Users/spinal/devkitPro/libctru/lib/libctru.a(rbtree_find.o)
 .debug_line    0x0000f5b6      0x187 /Users/spinal/devkitPro/libctru/lib/libctru.a(rbtree_init.o)
 .debug_line    0x0000f73d      0x251 /Users/spinal/devkitPro/libctru/lib/libctru.a(rbtree_insert.o)
 .debug_line    0x0000f98e      0x2f2 /Users/spinal/devkitPro/libctru/lib/libctru.a(rbtree_remove.o)
 .debug_line    0x0000fc80      0x1e2 /Users/spinal/devkitPro/libctru/lib/libctru.a(rbtree_rotate.o)
 .debug_line    0x0000fe62      0x146 /Users/spinal/devkitPro/libctru/lib/libctru.a(allocateHeaps.o)
 .debug_line    0x0000ffa8      0x181 /Users/spinal/devkitPro/libctru/lib/libctru.a(appExit.o)
 .debug_line    0x00010129      0x181 /Users/spinal/devkitPro/libctru/lib/libctru.a(appInit.o)
 .debug_line    0x000102aa      0x13c /Users/spinal/devkitPro/libctru/lib/libctru.a(ctru_exit.o)
 .debug_line    0x000103e6      0x5bb /Users/spinal/devkitPro/libctru/lib/libctru.a(sdmc_dev.o)
 .debug_line    0x000109a1      0x173 /Users/spinal/devkitPro/libctru/lib/libctru.a(rbtree_iterator.o)
 .debug_line    0x00010b14      0x186 /Users/spinal/devkitPro/libctru/lib/libctru.a(decode_utf8.o)
 .debug_line    0x00010c9a      0x1ff /Users/spinal/devkitPro/libctru/lib/libctru.a(utf16_to_utf8.o)
 .debug_line    0x00010e99      0x1f5 /Users/spinal/devkitPro/libctru/lib/libctru.a(utf8_to_utf16.o)
 .debug_line    0x0001108e      0x159 /Users/spinal/devkitPro/libctru/lib/libctru.a(decode_utf16.o)
 .debug_line    0x000111e7      0x163 /Users/spinal/devkitPro/libctru/lib/libctru.a(encode_utf16.o)
 .debug_line    0x0001134a      0x18a /Users/spinal/devkitPro/libctru/lib/libctru.a(encode_utf8.o)

.debug_frame    0x00000000     0x46e0
 *(.debug_frame)
 .debug_frame   0x00000000      0x894 1541d64.o
 .debug_frame   0x00000894      0x230 1541job.o
 .debug_frame   0x00000ac4      0x2f8 1541t64.o
 .debug_frame   0x00000dbc      0x4c8 C64.o
 .debug_frame   0x00001284      0x16c CIA.o
 .debug_frame   0x000013f0      0x1bc CPU1541.o
 .debug_frame   0x000015ac      0x298 CPUC64.o
 .debug_frame   0x00001844      0x214 Display.o
 .debug_frame   0x00001a58      0x4c0 IEC.o
 .debug_frame   0x00001f18       0xe8 Prefs.o
 .debug_frame   0x00002000       0xe4 REU.o
 .debug_frame   0x000020e4      0x290 SAM.o
 .debug_frame   0x00002374      0x268 SID.o
 .debug_frame   0x000025dc      0x170 VIC.o
 .debug_frame   0x0000274c      0x104 main.o
 .debug_frame   0x00002850       0x40 sound9.o
 .debug_frame   0x00002890      0x16c /Users/spinal/devkitPro/libctru/lib/libctru.a(gfx.o)
 .debug_frame   0x000029fc      0x158 /Users/spinal/devkitPro/libctru/lib/libctru.a(srv.o)
 .debug_frame   0x00002b54      0x684 /Users/spinal/devkitPro/libctru/lib/libctru.a(apt.o)
 .debug_frame   0x000031d8      0x484 /Users/spinal/devkitPro/libctru/lib/libctru.a(fs.o)
 .debug_frame   0x0000365c      0x274 /Users/spinal/devkitPro/libctru/lib/libctru.a(gsp.o)
 .debug_frame   0x000038d0       0xf0 /Users/spinal/devkitPro/libctru/lib/libctru.a(gx.o)
 .debug_frame   0x000039c0      0x1f8 /Users/spinal/devkitPro/libctru/lib/libctru.a(hid.o)
 .debug_frame   0x00003bb8      0x120 /Users/spinal/devkitPro/libctru/lib/libctru.a(irrst.o)
 .debug_frame   0x00003cd8       0x2c /Users/spinal/devkitPro/libctru/lib/libctru.a(initArgv.o)
 .debug_frame   0x00003d04       0x2c /Users/spinal/devkitPro/libctru/lib/libctru.a(initSystem.o)
 .debug_frame   0x00003d30       0xc0 /Users/spinal/devkitPro/libctru/lib/libctru.a(linear.o)
 .debug_frame   0x00003df0       0xa8 /Users/spinal/devkitPro/libctru/lib/libctru.a(mem_pool.o)
 .debug_frame   0x00003e98       0xb4 /Users/spinal/devkitPro/libctru/lib/libctru.a(vram.o)
 .debug_frame   0x00003f4c       0xd4 /Users/spinal/devkitPro/libctru/lib/libctru.a(os.o)
 .debug_frame   0x00004020       0x30 /Users/spinal/devkitPro/libctru/lib/libctru.a(rbtree_find.o)
 .debug_frame   0x00004050       0x20 /Users/spinal/devkitPro/libctru/lib/libctru.a(rbtree_init.o)
 .debug_frame   0x00004070       0x54 /Users/spinal/devkitPro/libctru/lib/libctru.a(rbtree_insert.o)
 .debug_frame   0x000040c4       0x38 /Users/spinal/devkitPro/libctru/lib/libctru.a(rbtree_remove.o)
 .debug_frame   0x000040fc       0x2c /Users/spinal/devkitPro/libctru/lib/libctru.a(rbtree_rotate.o)
 .debug_frame   0x00004128       0x34 /Users/spinal/devkitPro/libctru/lib/libctru.a(allocateHeaps.o)
 .debug_frame   0x0000415c       0x2c /Users/spinal/devkitPro/libctru/lib/libctru.a(appExit.o)
 .debug_frame   0x00004188       0x2c /Users/spinal/devkitPro/libctru/lib/libctru.a(appInit.o)
 .debug_frame   0x000041b4       0x28 /Users/spinal/devkitPro/libctru/lib/libctru.a(ctru_exit.o)
 .debug_frame   0x000041dc      0x3c4 /Users/spinal/devkitPro/libctru/lib/libctru.a(sdmc_dev.o)
 .debug_frame   0x000045a0       0x30 /Users/spinal/devkitPro/libctru/lib/libctru.a(rbtree_iterator.o)
 .debug_frame   0x000045d0       0x30 /Users/spinal/devkitPro/libctru/lib/libctru.a(decode_utf8.o)
 .debug_frame   0x00004600       0x3c /Users/spinal/devkitPro/libctru/lib/libctru.a(utf16_to_utf8.o)
 .debug_frame   0x0000463c       0x3c /Users/spinal/devkitPro/libctru/lib/libctru.a(utf8_to_utf16.o)
 .debug_frame   0x00004678       0x28 /Users/spinal/devkitPro/libctru/lib/libctru.a(decode_utf16.o)
 .debug_frame   0x000046a0       0x20 /Users/spinal/devkitPro/libctru/lib/libctru.a(encode_utf16.o)
 .debug_frame   0x000046c0       0x20 /Users/spinal/devkitPro/libctru/lib/libctru.a(encode_utf8.o)

.debug_str      0x00000000     0xc8f7
 *(.debug_str)
 .debug_str     0x00000000     0x4c7a 1541d64.o
                               0x5000 (size before relaxing)
 .debug_str     0x00004c7a      0x45c 1541job.o
                               0x119f (size before relaxing)
 .debug_str     0x000050d6      0x37c 1541t64.o
                               0x1727 (size before relaxing)
 .debug_str     0x00005452     0x1d7d C64.o
                               0x3812 (size before relaxing)
 .debug_str     0x000071cf      0x2ab CIA.o
                               0x2594 (size before relaxing)
 .debug_str     0x0000747a       0xb1 CPU1541.o
                               0x1ebe (size before relaxing)
 .debug_str     0x0000752b       0x96 CPUC64.o
                               0x2818 (size before relaxing)
 .debug_str     0x000075c1      0x58e CPU_common.o
                                0xaf4 (size before relaxing)
 .debug_str     0x00007b4f      0x3a1 Display.o
                               0x217d (size before relaxing)
 .debug_str     0x00007ef0      0x4e7 IEC.o
                               0x1b61 (size before relaxing)
 .debug_str     0x000083d7      0x153 Prefs.o
                                0xdc2 (size before relaxing)
 .debug_str     0x0000852a       0x8e REU.o
                               0x191c (size before relaxing)
 .debug_str     0x000085b8      0x605 SAM.o
                               0x2c94 (size before relaxing)
 .debug_str     0x00008bbd      0x579 SID.o
                               0x11fc (size before relaxing)
 .debug_str     0x00009136      0x281 VIC.o
                               0x229f (size before relaxing)
 .debug_str     0x000093b7       0x3d file.o
                                 0xda (size before relaxing)
 .debug_str     0x000093f4      0x25e main.o
                               0x18d5 (size before relaxing)
 .debug_str     0x00009652       0xcf sound9.o
                                0x25c (size before relaxing)
 .debug_str     0x00009721      0x48a /Users/spinal/devkitPro/libctru/lib/libctru.a(gfx.o)
                                0x742 (size before relaxing)
 .debug_str     0x00009bab      0x1b6 /Users/spinal/devkitPro/libctru/lib/libctru.a(srv.o)
                                0x35d (size before relaxing)
 .debug_str     0x00009d61      0xc5b /Users/spinal/devkitPro/libctru/lib/libctru.a(apt.o)
                                0xf62 (size before relaxing)
 .debug_str     0x0000a9bc      0x451 /Users/spinal/devkitPro/libctru/lib/libctru.a(fs.o)
                                0x6ac (size before relaxing)
 .debug_str     0x0000ae0d      0x256 /Users/spinal/devkitPro/libctru/lib/libctru.a(gsp.o)
                                0x75e (size before relaxing)
 .debug_str     0x0000b063      0x110 /Users/spinal/devkitPro/libctru/lib/libctru.a(gx.o)
                                0x2c1 (size before relaxing)
 .debug_str     0x0000b173      0x2d2 /Users/spinal/devkitPro/libctru/lib/libctru.a(hid.o)
                                0x72a (size before relaxing)
 .debug_str     0x0000b445       0xfc /Users/spinal/devkitPro/libctru/lib/libctru.a(irrst.o)
                                0x447 (size before relaxing)
 .debug_str     0x0000b541       0x8f /Users/spinal/devkitPro/libctru/lib/libctru.a(initArgv.o)
                                0x1ca (size before relaxing)
 .debug_str     0x0000b5d0      0x19a /Users/spinal/devkitPro/libctru/lib/libctru.a(initSystem.o)
                                0x6c3 (size before relaxing)
 .debug_str     0x0000b76a      0x45d /Users/spinal/devkitPro/libctru/lib/libctru.a(linear.o)
                                0x5a1 (size before relaxing)
 .debug_str     0x0000bbc7       0x7f /Users/spinal/devkitPro/libctru/lib/libctru.a(mem_pool.o)
                                0x435 (size before relaxing)
 .debug_str     0x0000bc46       0x7e /Users/spinal/devkitPro/libctru/lib/libctru.a(vram.o)
                                0x570 (size before relaxing)
 .debug_str     0x0000bcc4      0x129 /Users/spinal/devkitPro/libctru/lib/libctru.a(os.o)
                                0x6a1 (size before relaxing)
 .debug_str     0x0000bded       0x3d /Users/spinal/devkitPro/libctru/lib/libctru.a(rbtree_find.o)
                                0x1f1 (size before relaxing)
 .debug_str     0x0000be2a       0x38 /Users/spinal/devkitPro/libctru/lib/libctru.a(rbtree_init.o)
                                0x1e7 (size before relaxing)
 .debug_str     0x0000be62       0xdc /Users/spinal/devkitPro/libctru/lib/libctru.a(rbtree_insert.o)
                                0x2a9 (size before relaxing)
 .debug_str     0x0000bf3e       0x6f /Users/spinal/devkitPro/libctru/lib/libctru.a(rbtree_remove.o)
                                0x2c7 (size before relaxing)
 .debug_str     0x0000bfad       0x3a /Users/spinal/devkitPro/libctru/lib/libctru.a(rbtree_rotate.o)
                                0x23e (size before relaxing)
 .debug_str     0x0000bfe7      0x133 /Users/spinal/devkitPro/libctru/lib/libctru.a(allocateHeaps.o)
                                0x307 (size before relaxing)
 .debug_str     0x0000c11a       0x42 /Users/spinal/devkitPro/libctru/lib/libctru.a(appExit.o)
                                0x190 (size before relaxing)
 .debug_str     0x0000c15c       0x42 /Users/spinal/devkitPro/libctru/lib/libctru.a(appInit.o)
                                0x1a4 (size before relaxing)
 .debug_str     0x0000c19e       0x4f /Users/spinal/devkitPro/libctru/lib/libctru.a(ctru_exit.o)
                                0x30e (size before relaxing)
 .debug_str     0x0000c1ed      0x528 /Users/spinal/devkitPro/libctru/lib/libctru.a(sdmc_dev.o)
                                0xed5 (size before relaxing)
 .debug_str     0x0000c715       0x58 /Users/spinal/devkitPro/libctru/lib/libctru.a(rbtree_iterator.o)
                                0x1f1 (size before relaxing)
 .debug_str     0x0000c76d       0x4d /Users/spinal/devkitPro/libctru/lib/libctru.a(decode_utf8.o)
                                0x1ab (size before relaxing)
 .debug_str     0x0000c7ba       0x58 /Users/spinal/devkitPro/libctru/lib/libctru.a(utf16_to_utf8.o)
                                0x1de (size before relaxing)
 .debug_str     0x0000c812       0x44 /Users/spinal/devkitPro/libctru/lib/libctru.a(utf8_to_utf16.o)
                                0x1de (size before relaxing)
 .debug_str     0x0000c856       0x36 /Users/spinal/devkitPro/libctru/lib/libctru.a(decode_utf16.o)
                                0x1a3 (size before relaxing)
 .debug_str     0x0000c88c       0x36 /Users/spinal/devkitPro/libctru/lib/libctru.a(encode_utf16.o)
                                0x197 (size before relaxing)
 .debug_str     0x0000c8c2       0x35 /Users/spinal/devkitPro/libctru/lib/libctru.a(encode_utf8.o)
                                0x193 (size before relaxing)

.debug_loc      0x00000000    0x3768a
 *(.debug_loc)
 .debug_loc     0x00000000     0x4c95 1541d64.o
 .debug_loc     0x00004c95      0xabf 1541job.o
 .debug_loc     0x00005754     0x1840 1541t64.o
 .debug_loc     0x00006f94     0x13b7 C64.o
 .debug_loc     0x0000834b      0xad5 CIA.o
 .debug_loc     0x00008e20     0x81d0 CPU1541.o
 .debug_loc     0x00010ff0    0x142b1 CPUC64.o
 .debug_loc     0x000252a1     0x13f2 Display.o
 .debug_loc     0x00026693     0x1a1b IEC.o
 .debug_loc     0x000280ae      0x22b Prefs.o
 .debug_loc     0x000282d9      0x57a REU.o
 .debug_loc     0x00028853     0x1c03 SAM.o
 .debug_loc     0x0002a456      0xdaf SID.o
 .debug_loc     0x0002b205     0x3aab VIC.o
 .debug_loc     0x0002ecb0      0x2ca main.o
 .debug_loc     0x0002ef7a      0x464 /Users/spinal/devkitPro/libctru/lib/libctru.a(gfx.o)
 .debug_loc     0x0002f3de      0x41e /Users/spinal/devkitPro/libctru/lib/libctru.a(srv.o)
 .debug_loc     0x0002f7fc     0x1846 /Users/spinal/devkitPro/libctru/lib/libctru.a(apt.o)
 .debug_loc     0x00031042     0x110f /Users/spinal/devkitPro/libctru/lib/libctru.a(fs.o)
 .debug_loc     0x00032151      0xd16 /Users/spinal/devkitPro/libctru/lib/libctru.a(gsp.o)
 .debug_loc     0x00032e67      0x38a /Users/spinal/devkitPro/libctru/lib/libctru.a(gx.o)
 .debug_loc     0x000331f1      0x765 /Users/spinal/devkitPro/libctru/lib/libctru.a(hid.o)
 .debug_loc     0x00033956      0x39c /Users/spinal/devkitPro/libctru/lib/libctru.a(irrst.o)
 .debug_loc     0x00033cf2       0xfb /Users/spinal/devkitPro/libctru/lib/libctru.a(initArgv.o)
 .debug_loc     0x00033ded       0x21 /Users/spinal/devkitPro/libctru/lib/libctru.a(initSystem.o)
 .debug_loc     0x00033e0e      0x309 /Users/spinal/devkitPro/libctru/lib/libctru.a(linear.o)
 .debug_loc     0x00034117      0x95b /Users/spinal/devkitPro/libctru/lib/libctru.a(mem_pool.o)
 .debug_loc     0x00034a72      0x304 /Users/spinal/devkitPro/libctru/lib/libctru.a(vram.o)
 .debug_loc     0x00034d76      0x23d /Users/spinal/devkitPro/libctru/lib/libctru.a(os.o)
 .debug_loc     0x00034fb3      0x10d /Users/spinal/devkitPro/libctru/lib/libctru.a(rbtree_find.o)
 .debug_loc     0x000350c0      0x382 /Users/spinal/devkitPro/libctru/lib/libctru.a(rbtree_insert.o)
 .debug_loc     0x00035442      0x506 /Users/spinal/devkitPro/libctru/lib/libctru.a(rbtree_remove.o)
 .debug_loc     0x00035948       0x8e /Users/spinal/devkitPro/libctru/lib/libctru.a(rbtree_rotate.o)
 .debug_loc     0x000359d6       0x21 /Users/spinal/devkitPro/libctru/lib/libctru.a(ctru_exit.o)
 .debug_loc     0x000359f7     0x124d /Users/spinal/devkitPro/libctru/lib/libctru.a(sdmc_dev.o)
 .debug_loc     0x00036c44      0x2b2 /Users/spinal/devkitPro/libctru/lib/libctru.a(rbtree_iterator.o)
 .debug_loc     0x00036ef6      0x232 /Users/spinal/devkitPro/libctru/lib/libctru.a(decode_utf8.o)
 .debug_loc     0x00037128      0x125 /Users/spinal/devkitPro/libctru/lib/libctru.a(utf16_to_utf8.o)
 .debug_loc     0x0003724d       0xf3 /Users/spinal/devkitPro/libctru/lib/libctru.a(utf8_to_utf16.o)
 .debug_loc     0x00037340       0xc4 /Users/spinal/devkitPro/libctru/lib/libctru.a(decode_utf16.o)
 .debug_loc     0x00037404       0xdc /Users/spinal/devkitPro/libctru/lib/libctru.a(encode_utf16.o)
 .debug_loc     0x000374e0      0x1aa /Users/spinal/devkitPro/libctru/lib/libctru.a(encode_utf8.o)

.debug_macinfo
 *(.debug_macinfo)
LOAD /Users/spinal/devkitPro/devkitARM/bin/../lib/gcc/arm-none-eabi/4.9.2/../../../../arm-none-eabi/lib/armv6k/fpu/3dsx_crt0.o
LOAD /Users/spinal/devkitPro/devkitARM/bin/../lib/gcc/arm-none-eabi/4.9.2/armv6k/fpu/crti.o
LOAD /Users/spinal/devkitPro/devkitARM/bin/../lib/gcc/arm-none-eabi/4.9.2/armv6k/fpu/crtbegin.o
LOAD 1541.ROM.bin.o
LOAD BASIC.ROM.bin.o
LOAD C64_Keyboard.bin.o
LOAD CHAR.ROM.bin.o
LOAD KERNAL.ROM.bin.o
LOAD myfont.bin.o
LOAD myfont1.bin.o
LOAD 1541d64.o
LOAD 1541job.o
LOAD 1541t64.o
LOAD C64.o
LOAD CIA.o
LOAD CPU1541.o
LOAD CPUC64.o
LOAD CPU_common.o
LOAD Display.o
LOAD IEC.o
LOAD Prefs.o
LOAD REU.o
LOAD SAM.o
LOAD SID.o
LOAD VIC.o
LOAD file.o
LOAD main.o
LOAD sound9.o
LOAD /Users/spinal/devkitPro/libctru/lib/libctru.a
LOAD /Users/spinal/devkitPro/devkitARM/bin/../lib/gcc/arm-none-eabi/4.9.2/../../../../arm-none-eabi/lib/armv6k/fpu/libstdc++.a
LOAD /Users/spinal/devkitPro/devkitARM/bin/../lib/gcc/arm-none-eabi/4.9.2/../../../../arm-none-eabi/lib/armv6k/fpu/libm.a
START GROUP
LOAD /Users/spinal/devkitPro/devkitARM/bin/../lib/gcc/arm-none-eabi/4.9.2/armv6k/fpu/libgcc.a
LOAD /Users/spinal/devkitPro/devkitARM/bin/../lib/gcc/arm-none-eabi/4.9.2/../../../../arm-none-eabi/lib/armv6k/fpu/libg.a
LOAD /Users/spinal/devkitPro/devkitARM/bin/../lib/gcc/arm-none-eabi/4.9.2/../../../../arm-none-eabi/lib/armv6k/fpu/libc.a
LOAD /Users/spinal/devkitPro/devkitARM/bin/../lib/gcc/arm-none-eabi/4.9.2/../../../../arm-none-eabi/lib/armv6k/fpu/libsysbase.a
END GROUP
LOAD /Users/spinal/devkitPro/devkitARM/bin/../lib/gcc/arm-none-eabi/4.9.2/armv6k/fpu/crtend.o
LOAD /Users/spinal/devkitPro/devkitARM/bin/../lib/gcc/arm-none-eabi/4.9.2/armv6k/fpu/crtn.o
OUTPUT(/Users/spinal/GitHub/BreadBox/BreadBoxSource/BreadBox.elf elf32-littlearm)

.ARM.attributes
                0x00000000       0x32
 .ARM.attributes
                0x00000000       0x1e /Users/spinal/devkitPro/devkitARM/bin/../lib/gcc/arm-none-eabi/4.9.2/../../../../arm-none-eabi/lib/armv6k/fpu/3dsx_crt0.o
 .ARM.attributes
                0x0000001e       0x1c /Users/spinal/devkitPro/devkitARM/bin/../lib/gcc/arm-none-eabi/4.9.2/armv6k/fpu/crti.o
 .ARM.attributes
                0x0000003a       0x32 /Users/spinal/devkitPro/devkitARM/bin/../lib/gcc/arm-none-eabi/4.9.2/armv6k/fpu/crtbegin.o
 .ARM.attributes
                0x0000006c       0x14 1541.ROM.bin.o
 .ARM.attributes
                0x00000080       0x14 BASIC.ROM.bin.o
 .ARM.attributes
                0x00000094       0x14 C64_Keyboard.bin.o
 .ARM.attributes
                0x000000a8       0x14 CHAR.ROM.bin.o
 .ARM.attributes
                0x000000bc       0x14 KERNAL.ROM.bin.o
 .ARM.attributes
                0x000000d0       0x14 myfont.bin.o
 .ARM.attributes
                0x000000e4       0x14 myfont1.bin.o
 .ARM.attributes
                0x000000f8       0x2e 1541d64.o
 .ARM.attributes
                0x00000126       0x2e 1541job.o
 .ARM.attributes
                0x00000154       0x2e 1541t64.o
 .ARM.attributes
                0x00000182       0x2e C64.o
 .ARM.attributes
                0x000001b0       0x2e CIA.o
 .ARM.attributes
                0x000001de       0x2e CPU1541.o
 .ARM.attributes
                0x0000020c       0x2e CPUC64.o
 .ARM.attributes
                0x0000023a       0x2e CPU_common.o
 .ARM.attributes
                0x00000268       0x2e Display.o
 .ARM.attributes
                0x00000296       0x2e IEC.o
 .ARM.attributes
                0x000002c4       0x2e Prefs.o
 .ARM.attributes
                0x000002f2       0x2e REU.o
 .ARM.attributes
                0x00000320       0x2e SAM.o
 .ARM.attributes
                0x0000034e       0x2e SID.o
 .ARM.attributes
                0x0000037c       0x2e VIC.o
 .ARM.attributes
                0x000003aa       0x2e file.o
 .ARM.attributes
                0x000003d8       0x2e main.o
 .ARM.attributes
                0x00000406       0x2e sound9.o
 .ARM.attributes
                0x00000434       0x2e /Users/spinal/devkitPro/libctru/lib/libctru.a(gfx.o)
 .ARM.attributes
                0x00000462       0x2e /Users/spinal/devkitPro/libctru/lib/libctru.a(srv.o)
 .ARM.attributes
                0x00000490       0x2e /Users/spinal/devkitPro/libctru/lib/libctru.a(apt.o)
 .ARM.attributes
                0x000004be       0x2e /Users/spinal/devkitPro/libctru/lib/libctru.a(fs.o)
 .ARM.attributes
                0x000004ec       0x2e /Users/spinal/devkitPro/libctru/lib/libctru.a(gsp.o)
 .ARM.attributes
                0x0000051a       0x2e /Users/spinal/devkitPro/libctru/lib/libctru.a(gx.o)
 .ARM.attributes
                0x00000548       0x2e /Users/spinal/devkitPro/libctru/lib/libctru.a(hid.o)
 .ARM.attributes
                0x00000576       0x2e /Users/spinal/devkitPro/libctru/lib/libctru.a(irrst.o)
 .ARM.attributes
                0x000005a4       0x2e /Users/spinal/devkitPro/libctru/lib/libctru.a(initArgv.o)
 .ARM.attributes
                0x000005d2       0x2e /Users/spinal/devkitPro/libctru/lib/libctru.a(initSystem.o)
 .ARM.attributes
                0x00000600       0x1a /Users/spinal/devkitPro/libctru/lib/libctru.a(svc.o)
 .ARM.attributes
                0x0000061a       0x1a /Users/spinal/devkitPro/libctru/lib/libctru.a(stack_adjust.o)
 .ARM.attributes
                0x00000634       0x2e /Users/spinal/devkitPro/libctru/lib/libctru.a(linear.o)
 .ARM.attributes
                0x00000662       0x2e /Users/spinal/devkitPro/libctru/lib/libctru.a(mem_pool.o)
 .ARM.attributes
                0x00000690       0x2e /Users/spinal/devkitPro/libctru/lib/libctru.a(vram.o)
 .ARM.attributes
                0x000006be       0x2e /Users/spinal/devkitPro/libctru/lib/libctru.a(os.o)
 .ARM.attributes
                0x000006ec       0x2e /Users/spinal/devkitPro/libctru/lib/libctru.a(rbtree_find.o)
 .ARM.attributes
                0x0000071a       0x2e /Users/spinal/devkitPro/libctru/lib/libctru.a(rbtree_init.o)
 .ARM.attributes
                0x00000748       0x2e /Users/spinal/devkitPro/libctru/lib/libctru.a(rbtree_insert.o)
 .ARM.attributes
                0x00000776       0x2e /Users/spinal/devkitPro/libctru/lib/libctru.a(rbtree_remove.o)
 .ARM.attributes
                0x000007a4       0x2e /Users/spinal/devkitPro/libctru/lib/libctru.a(rbtree_rotate.o)
 .ARM.attributes
                0x000007d2       0x2e /Users/spinal/devkitPro/libctru/lib/libctru.a(allocateHeaps.o)
 .ARM.attributes
                0x00000800       0x2e /Users/spinal/devkitPro/libctru/lib/libctru.a(appExit.o)
 .ARM.attributes
                0x0000082e       0x2e /Users/spinal/devkitPro/libctru/lib/libctru.a(appInit.o)
 .ARM.attributes
                0x0000085c       0x2e /Users/spinal/devkitPro/libctru/lib/libctru.a(ctru_exit.o)
 .ARM.attributes
                0x0000088a       0x2e /Users/spinal/devkitPro/libctru/lib/libctru.a(sdmc_dev.o)
 .ARM.attributes
                0x000008b8       0x2e /Users/spinal/devkitPro/libctru/lib/libctru.a(rbtree_iterator.o)
 .ARM.attributes
                0x000008e6       0x2e /Users/spinal/devkitPro/libctru/lib/libctru.a(decode_utf8.o)
 .ARM.attributes
                0x00000914       0x2e /Users/spinal/devkitPro/libctru/lib/libctru.a(utf16_to_utf8.o)
 .ARM.attributes
                0x00000942       0x2e /Users/spinal/devkitPro/libctru/lib/libctru.a(utf8_to_utf16.o)
 .ARM.attributes
                0x00000970       0x2e /Users/spinal/devkitPro/libctru/lib/libctru.a(decode_utf16.o)
 .ARM.attributes
                0x0000099e       0x2e /Users/spinal/devkitPro/libctru/lib/libctru.a(encode_utf16.o)
 .ARM.attributes
                0x000009cc       0x2e /Users/spinal/devkitPro/libctru/lib/libctru.a(encode_utf8.o)
 .ARM.attributes
                0x000009fa       0x32 /Users/spinal/devkitPro/devkitARM/bin/../lib/gcc/arm-none-eabi/4.9.2/../../../../arm-none-eabi/lib/armv6k/fpu/libstdc++.a(del_op.o)
 .ARM.attributes
                0x00000a2c       0x32 /Users/spinal/devkitPro/devkitARM/bin/../lib/gcc/arm-none-eabi/4.9.2/../../../../arm-none-eabi/lib/armv6k/fpu/libstdc++.a(del_opv.o)
 .ARM.attributes
                0x00000a5e       0x32 /Users/spinal/devkitPro/devkitARM/bin/../lib/gcc/arm-none-eabi/4.9.2/../../../../arm-none-eabi/lib/armv6k/fpu/libstdc++.a(guard.o)
 .ARM.attributes
                0x00000a90       0x32 /Users/spinal/devkitPro/devkitARM/bin/../lib/gcc/arm-none-eabi/4.9.2/../../../../arm-none-eabi/lib/armv6k/fpu/libstdc++.a(guard_error.o)
 .ARM.attributes
                0x00000ac2       0x32 /Users/spinal/devkitPro/devkitARM/bin/../lib/gcc/arm-none-eabi/4.9.2/../../../../arm-none-eabi/lib/armv6k/fpu/libstdc++.a(new_op.o)
 .ARM.attributes
                0x00000af4       0x32 /Users/spinal/devkitPro/devkitARM/bin/../lib/gcc/arm-none-eabi/4.9.2/../../../../arm-none-eabi/lib/armv6k/fpu/libstdc++.a(new_opv.o)
 .ARM.attributes
                0x00000b26       0x32 /Users/spinal/devkitPro/devkitARM/bin/../lib/gcc/arm-none-eabi/4.9.2/../../../../arm-none-eabi/lib/armv6k/fpu/libstdc++.a(pure.o)
 .ARM.attributes
                0x00000b58       0x32 /Users/spinal/devkitPro/devkitARM/bin/../lib/gcc/arm-none-eabi/4.9.2/../../../../arm-none-eabi/lib/armv6k/fpu/libstdc++.a(si_class_type_info.o)
 .ARM.attributes
                0x00000b8a       0x32 /Users/spinal/devkitPro/devkitARM/bin/../lib/gcc/arm-none-eabi/4.9.2/../../../../arm-none-eabi/lib/armv6k/fpu/libstdc++.a(tinfo.o)
 .ARM.attributes
                0x00000bbc       0x32 /Users/spinal/devkitPro/devkitARM/bin/../lib/gcc/arm-none-eabi/4.9.2/../../../../arm-none-eabi/lib/armv6k/fpu/libstdc++.a(bad_alloc.o)
 .ARM.attributes
                0x00000bee       0x32 /Users/spinal/devkitPro/devkitARM/bin/../lib/gcc/arm-none-eabi/4.9.2/../../../../arm-none-eabi/lib/armv6k/fpu/libstdc++.a(class_type_info.o)
 .ARM.attributes
                0x00000c20       0x32 /Users/spinal/devkitPro/devkitARM/bin/../lib/gcc/arm-none-eabi/4.9.2/../../../../arm-none-eabi/lib/armv6k/fpu/libstdc++.a(eh_alloc.o)
 .ARM.attributes
                0x00000c52       0x32 /Users/spinal/devkitPro/devkitARM/bin/../lib/gcc/arm-none-eabi/4.9.2/../../../../arm-none-eabi/lib/armv6k/fpu/libstdc++.a(eh_arm.o)
 .ARM.attributes
                0x00000c84       0x32 /Users/spinal/devkitPro/devkitARM/bin/../lib/gcc/arm-none-eabi/4.9.2/../../../../arm-none-eabi/lib/armv6k/fpu/libstdc++.a(eh_call.o)
 .ARM.attributes
                0x00000cb6       0x32 /Users/spinal/devkitPro/devkitARM/bin/../lib/gcc/arm-none-eabi/4.9.2/../../../../arm-none-eabi/lib/armv6k/fpu/libstdc++.a(eh_catch.o)
 .ARM.attributes
                0x00000ce8       0x32 /Users/spinal/devkitPro/devkitARM/bin/../lib/gcc/arm-none-eabi/4.9.2/../../../../arm-none-eabi/lib/armv6k/fpu/libstdc++.a(eh_exception.o)
 .ARM.attributes
                0x00000d1a       0x32 /Users/spinal/devkitPro/devkitARM/bin/../lib/gcc/arm-none-eabi/4.9.2/../../../../arm-none-eabi/lib/armv6k/fpu/libstdc++.a(eh_globals.o)
 .ARM.attributes
                0x00000d4c       0x32 /Users/spinal/devkitPro/devkitARM/bin/../lib/gcc/arm-none-eabi/4.9.2/../../../../arm-none-eabi/lib/armv6k/fpu/libstdc++.a(eh_personality.o)
 .ARM.attributes
                0x00000d7e       0x32 /Users/spinal/devkitPro/devkitARM/bin/../lib/gcc/arm-none-eabi/4.9.2/../../../../arm-none-eabi/lib/armv6k/fpu/libstdc++.a(eh_terminate.o)
 .ARM.attributes
                0x00000db0       0x32 /Users/spinal/devkitPro/devkitARM/bin/../lib/gcc/arm-none-eabi/4.9.2/../../../../arm-none-eabi/lib/armv6k/fpu/libstdc++.a(eh_throw.o)
 .ARM.attributes
                0x00000de2       0x32 /Users/spinal/devkitPro/devkitARM/bin/../lib/gcc/arm-none-eabi/4.9.2/../../../../arm-none-eabi/lib/armv6k/fpu/libstdc++.a(eh_unex_handler.o)
 .ARM.attributes
                0x00000e14       0x32 /Users/spinal/devkitPro/devkitARM/bin/../lib/gcc/arm-none-eabi/4.9.2/../../../../arm-none-eabi/lib/armv6k/fpu/libstdc++.a(new_handler.o)
 .ARM.attributes
                0x00000e46       0x32 /Users/spinal/devkitPro/devkitARM/bin/../lib/gcc/arm-none-eabi/4.9.2/../../../../arm-none-eabi/lib/armv6k/fpu/libstdc++.a(eh_term_handler.o)
 .ARM.attributes
                0x00000e78       0x32 /Users/spinal/devkitPro/devkitARM/bin/../lib/gcc/arm-none-eabi/4.9.2/../../../../arm-none-eabi/lib/armv6k/fpu/libstdc++.a(vterminate.o)
 .ARM.attributes
                0x00000eaa       0x32 /Users/spinal/devkitPro/devkitARM/bin/../lib/gcc/arm-none-eabi/4.9.2/../../../../arm-none-eabi/lib/armv6k/fpu/libstdc++.a(cp-demangle.o)
 .ARM.attributes
                0x00000edc       0x32 /Users/spinal/devkitPro/devkitARM/bin/../lib/gcc/arm-none-eabi/4.9.2/../../../../arm-none-eabi/lib/armv6k/fpu/libstdc++.a(eh_type.o)
 .ARM.attributes
                0x00000f0e       0x32 /Users/spinal/devkitPro/devkitARM/bin/../lib/gcc/arm-none-eabi/4.9.2/../../../../arm-none-eabi/lib/armv6k/fpu/libm.a(lib_a-s_cos.o)
 .ARM.attributes
                0x00000f40       0x32 /Users/spinal/devkitPro/devkitARM/bin/../lib/gcc/arm-none-eabi/4.9.2/../../../../arm-none-eabi/lib/armv6k/fpu/libm.a(lib_a-s_sin.o)
 .ARM.attributes
                0x00000f72       0x32 /Users/spinal/devkitPro/devkitARM/bin/../lib/gcc/arm-none-eabi/4.9.2/../../../../arm-none-eabi/lib/armv6k/fpu/libm.a(lib_a-e_rem_pio2.o)
 .ARM.attributes
                0x00000fa4       0x32 /Users/spinal/devkitPro/devkitARM/bin/../lib/gcc/arm-none-eabi/4.9.2/../../../../arm-none-eabi/lib/armv6k/fpu/libm.a(lib_a-k_cos.o)
 .ARM.attributes
                0x00000fd6       0x32 /Users/spinal/devkitPro/devkitARM/bin/../lib/gcc/arm-none-eabi/4.9.2/../../../../arm-none-eabi/lib/armv6k/fpu/libm.a(lib_a-k_rem_pio2.o)
 .ARM.attributes
                0x00001008       0x32 /Users/spinal/devkitPro/devkitARM/bin/../lib/gcc/arm-none-eabi/4.9.2/../../../../arm-none-eabi/lib/armv6k/fpu/libm.a(lib_a-k_sin.o)
 .ARM.attributes
                0x0000103a       0x32 /Users/spinal/devkitPro/devkitARM/bin/../lib/gcc/arm-none-eabi/4.9.2/../../../../arm-none-eabi/lib/armv6k/fpu/libm.a(lib_a-s_fabs.o)
 .ARM.attributes
                0x0000106c       0x32 /Users/spinal/devkitPro/devkitARM/bin/../lib/gcc/arm-none-eabi/4.9.2/../../../../arm-none-eabi/lib/armv6k/fpu/libm.a(lib_a-s_floor.o)
 .ARM.attributes
                0x0000109e       0x32 /Users/spinal/devkitPro/devkitARM/bin/../lib/gcc/arm-none-eabi/4.9.2/../../../../arm-none-eabi/lib/armv6k/fpu/libm.a(lib_a-s_scalbn.o)
 .ARM.attributes
                0x000010d0       0x32 /Users/spinal/devkitPro/devkitARM/bin/../lib/gcc/arm-none-eabi/4.9.2/../../../../arm-none-eabi/lib/armv6k/fpu/libm.a(lib_a-s_copysign.o)
 .ARM.attributes
                0x00001102       0x1c /Users/spinal/devkitPro/devkitARM/bin/../lib/gcc/arm-none-eabi/4.9.2/armv6k/fpu/libgcc.a(_udivsi3.o)
 .ARM.attributes
                0x0000111e       0x1c /Users/spinal/devkitPro/devkitARM/bin/../lib/gcc/arm-none-eabi/4.9.2/armv6k/fpu/libgcc.a(_dvmd_tls.o)
 .ARM.attributes
                0x0000113a       0x32 /Users/spinal/devkitPro/devkitARM/bin/../lib/gcc/arm-none-eabi/4.9.2/armv6k/fpu/libgcc.a(unwind-arm.o)
 .ARM.attributes
                0x0000116c       0x1c /Users/spinal/devkitPro/devkitARM/bin/../lib/gcc/arm-none-eabi/4.9.2/armv6k/fpu/libgcc.a(libunwind.o)
 .ARM.attributes
                0x00001188       0x32 /Users/spinal/devkitPro/devkitARM/bin/../lib/gcc/arm-none-eabi/4.9.2/armv6k/fpu/libgcc.a(pr-support.o)
 .ARM.attributes
                0x000011ba       0x32 /Users/spinal/devkitPro/devkitARM/bin/../lib/gcc/arm-none-eabi/4.9.2/../../../../arm-none-eabi/lib/armv6k/fpu/libg.a(lib_a-abort.o)
 .ARM.attributes
                0x000011ec       0x32 /Users/spinal/devkitPro/devkitARM/bin/../lib/gcc/arm-none-eabi/4.9.2/../../../../arm-none-eabi/lib/armv6k/fpu/libg.a(lib_a-atoi.o)
 .ARM.attributes
                0x0000121e       0x32 /Users/spinal/devkitPro/devkitARM/bin/../lib/gcc/arm-none-eabi/4.9.2/../../../../arm-none-eabi/lib/armv6k/fpu/libg.a(lib_a-bsearch.o)
 .ARM.attributes
                0x00001250       0x32 /Users/spinal/devkitPro/devkitARM/bin/../lib/gcc/arm-none-eabi/4.9.2/../../../../arm-none-eabi/lib/armv6k/fpu/libg.a(lib_a-fclose.o)
 .ARM.attributes
                0x00001282       0x32 /Users/spinal/devkitPro/devkitARM/bin/../lib/gcc/arm-none-eabi/4.9.2/../../../../arm-none-eabi/lib/armv6k/fpu/libg.a(lib_a-fflush.o)
 .ARM.attributes
                0x000012b4       0x32 /Users/spinal/devkitPro/devkitARM/bin/../lib/gcc/arm-none-eabi/4.9.2/../../../../arm-none-eabi/lib/armv6k/fpu/libg.a(lib_a-fgetc.o)
 .ARM.attributes
                0x000012e6       0x32 /Users/spinal/devkitPro/devkitARM/bin/../lib/gcc/arm-none-eabi/4.9.2/../../../../arm-none-eabi/lib/armv6k/fpu/libg.a(lib_a-fgets.o)
 .ARM.attributes
                0x00001318       0x32 /Users/spinal/devkitPro/devkitARM/bin/../lib/gcc/arm-none-eabi/4.9.2/../../../../arm-none-eabi/lib/armv6k/fpu/libg.a(lib_a-findfp.o)
 .ARM.attributes
                0x0000134a       0x32 /Users/spinal/devkitPro/devkitARM/bin/../lib/gcc/arm-none-eabi/4.9.2/../../../../arm-none-eabi/lib/armv6k/fpu/libg.a(lib_a-fini.o)
 .ARM.attributes
                0x0000137c       0x32 /Users/spinal/devkitPro/devkitARM/bin/../lib/gcc/arm-none-eabi/4.9.2/../../../../arm-none-eabi/lib/armv6k/fpu/libg.a(lib_a-fopen.o)
 .ARM.attributes
                0x000013ae       0x32 /Users/spinal/devkitPro/devkitARM/bin/../lib/gcc/arm-none-eabi/4.9.2/../../../../arm-none-eabi/lib/armv6k/fpu/libg.a(lib_a-fprintf.o)
 .ARM.attributes
                0x000013e0       0x32 /Users/spinal/devkitPro/devkitARM/bin/../lib/gcc/arm-none-eabi/4.9.2/../../../../arm-none-eabi/lib/armv6k/fpu/libg.a(lib_a-fputc.o)
 .ARM.attributes
                0x00001412       0x32 /Users/spinal/devkitPro/devkitARM/bin/../lib/gcc/arm-none-eabi/4.9.2/../../../../arm-none-eabi/lib/armv6k/fpu/libg.a(lib_a-fputs.o)
 .ARM.attributes
                0x00001444       0x32 /Users/spinal/devkitPro/devkitARM/bin/../lib/gcc/arm-none-eabi/4.9.2/../../../../arm-none-eabi/lib/armv6k/fpu/libg.a(lib_a-fread.o)
 .ARM.attributes
                0x00001476       0x32 /Users/spinal/devkitPro/devkitARM/bin/../lib/gcc/arm-none-eabi/4.9.2/../../../../arm-none-eabi/lib/armv6k/fpu/libg.a(lib_a-freer.o)
 .ARM.attributes
                0x000014a8       0x32 /Users/spinal/devkitPro/devkitARM/bin/../lib/gcc/arm-none-eabi/4.9.2/../../../../arm-none-eabi/lib/armv6k/fpu/libg.a(lib_a-fscanf.o)
 .ARM.attributes
                0x000014da       0x32 /Users/spinal/devkitPro/devkitARM/bin/../lib/gcc/arm-none-eabi/4.9.2/../../../../arm-none-eabi/lib/armv6k/fpu/libg.a(lib_a-fseek.o)
 .ARM.attributes
                0x0000150c       0x32 /Users/spinal/devkitPro/devkitARM/bin/../lib/gcc/arm-none-eabi/4.9.2/../../../../arm-none-eabi/lib/armv6k/fpu/libg.a(lib_a-fseeko.o)
 .ARM.attributes
                0x0000153e       0x32 /Users/spinal/devkitPro/devkitARM/bin/../lib/gcc/arm-none-eabi/4.9.2/../../../../arm-none-eabi/lib/armv6k/fpu/libg.a(lib_a-ftell.o)
 .ARM.attributes
                0x00001570       0x32 /Users/spinal/devkitPro/devkitARM/bin/../lib/gcc/arm-none-eabi/4.9.2/../../../../arm-none-eabi/lib/armv6k/fpu/libg.a(lib_a-ftello.o)
 .ARM.attributes
                0x000015a2       0x32 /Users/spinal/devkitPro/devkitARM/bin/../lib/gcc/arm-none-eabi/4.9.2/../../../../arm-none-eabi/lib/armv6k/fpu/libg.a(lib_a-fvwrite.o)
 .ARM.attributes
                0x000015d4       0x32 /Users/spinal/devkitPro/devkitARM/bin/../lib/gcc/arm-none-eabi/4.9.2/../../../../arm-none-eabi/lib/armv6k/fpu/libg.a(lib_a-fwalk.o)
 .ARM.attributes
                0x00001606       0x32 /Users/spinal/devkitPro/devkitARM/bin/../lib/gcc/arm-none-eabi/4.9.2/../../../../arm-none-eabi/lib/armv6k/fpu/libg.a(lib_a-fwrite.o)
 .ARM.attributes
                0x00001638       0x32 /Users/spinal/devkitPro/devkitARM/bin/../lib/gcc/arm-none-eabi/4.9.2/../../../../arm-none-eabi/lib/armv6k/fpu/libg.a(lib_a-impure.o)
 .ARM.attributes
                0x0000166a       0x32 /Users/spinal/devkitPro/devkitARM/bin/../lib/gcc/arm-none-eabi/4.9.2/../../../../arm-none-eabi/lib/armv6k/fpu/libg.a(lib_a-init.o)
 .ARM.attributes
                0x0000169c       0x32 /Users/spinal/devkitPro/devkitARM/bin/../lib/gcc/arm-none-eabi/4.9.2/../../../../arm-none-eabi/lib/armv6k/fpu/libg.a(lib_a-iprintf.o)
 .ARM.attributes
                0x000016ce       0x32 /Users/spinal/devkitPro/devkitARM/bin/../lib/gcc/arm-none-eabi/4.9.2/../../../../arm-none-eabi/lib/armv6k/fpu/libg.a(lib_a-makebuf.o)
 .ARM.attributes
                0x00001700       0x32 /Users/spinal/devkitPro/devkitARM/bin/../lib/gcc/arm-none-eabi/4.9.2/../../../../arm-none-eabi/lib/armv6k/fpu/libg.a(lib_a-malloc.o)
 .ARM.attributes
                0x00001732       0x32 /Users/spinal/devkitPro/devkitARM/bin/../lib/gcc/arm-none-eabi/4.9.2/../../../../arm-none-eabi/lib/armv6k/fpu/libg.a(lib_a-mallocr.o)
 .ARM.attributes
                0x00001764       0x32 /Users/spinal/devkitPro/devkitARM/bin/../lib/gcc/arm-none-eabi/4.9.2/../../../../arm-none-eabi/lib/armv6k/fpu/libg.a(lib_a-memchr.o)
 .ARM.attributes
                0x00001796       0x32 /Users/spinal/devkitPro/devkitARM/bin/../lib/gcc/arm-none-eabi/4.9.2/../../../../arm-none-eabi/lib/armv6k/fpu/libg.a(lib_a-memcmp.o)
 .ARM.attributes
                0x000017c8       0x32 /Users/spinal/devkitPro/devkitARM/bin/../lib/gcc/arm-none-eabi/4.9.2/../../../../arm-none-eabi/lib/armv6k/fpu/libg.a(lib_a-memcpy.o)
 .ARM.attributes
                0x000017fa       0x32 /Users/spinal/devkitPro/devkitARM/bin/../lib/gcc/arm-none-eabi/4.9.2/../../../../arm-none-eabi/lib/armv6k/fpu/libg.a(lib_a-memmove.o)
 .ARM.attributes
                0x0000182c       0x32 /Users/spinal/devkitPro/devkitARM/bin/../lib/gcc/arm-none-eabi/4.9.2/../../../../arm-none-eabi/lib/armv6k/fpu/libg.a(lib_a-memset.o)
 .ARM.attributes
                0x0000185e       0x32 /Users/spinal/devkitPro/devkitARM/bin/../lib/gcc/arm-none-eabi/4.9.2/../../../../arm-none-eabi/lib/armv6k/fpu/libg.a(lib_a-mlock.o)
 .ARM.attributes
                0x00001890       0x32 /Users/spinal/devkitPro/devkitARM/bin/../lib/gcc/arm-none-eabi/4.9.2/../../../../arm-none-eabi/lib/armv6k/fpu/libg.a(lib_a-printf.o)
 .ARM.attributes
                0x000018c2       0x32 /Users/spinal/devkitPro/devkitARM/bin/../lib/gcc/arm-none-eabi/4.9.2/../../../../arm-none-eabi/lib/armv6k/fpu/libg.a(lib_a-putc.o)
 .ARM.attributes
                0x000018f4       0x32 /Users/spinal/devkitPro/devkitARM/bin/../lib/gcc/arm-none-eabi/4.9.2/../../../../arm-none-eabi/lib/armv6k/fpu/libg.a(lib_a-puts.o)
 .ARM.attributes
                0x00001926       0x32 /Users/spinal/devkitPro/devkitARM/bin/../lib/gcc/arm-none-eabi/4.9.2/../../../../arm-none-eabi/lib/armv6k/fpu/libg.a(lib_a-rand.o)
 .ARM.attributes
                0x00001958       0x32 /Users/spinal/devkitPro/devkitARM/bin/../lib/gcc/arm-none-eabi/4.9.2/../../../../arm-none-eabi/lib/armv6k/fpu/libg.a(lib_a-realloc.o)
 .ARM.attributes
                0x0000198a       0x32 /Users/spinal/devkitPro/devkitARM/bin/../lib/gcc/arm-none-eabi/4.9.2/../../../../arm-none-eabi/lib/armv6k/fpu/libg.a(lib_a-reallocr.o)
 .ARM.attributes
                0x000019bc       0x32 /Users/spinal/devkitPro/devkitARM/bin/../lib/gcc/arm-none-eabi/4.9.2/../../../../arm-none-eabi/lib/armv6k/fpu/libg.a(lib_a-refill.o)
 .ARM.attributes
                0x000019ee       0x32 /Users/spinal/devkitPro/devkitARM/bin/../lib/gcc/arm-none-eabi/4.9.2/../../../../arm-none-eabi/lib/armv6k/fpu/libg.a(lib_a-remove.o)
 .ARM.attributes
                0x00001a20       0x32 /Users/spinal/devkitPro/devkitARM/bin/../lib/gcc/arm-none-eabi/4.9.2/../../../../arm-none-eabi/lib/armv6k/fpu/libg.a(lib_a-rget.o)
 .ARM.attributes
                0x00001a52       0x32 /Users/spinal/devkitPro/devkitARM/bin/../lib/gcc/arm-none-eabi/4.9.2/../../../../arm-none-eabi/lib/armv6k/fpu/libg.a(lib_a-signal.o)
 .ARM.attributes
                0x00001a84       0x32 /Users/spinal/devkitPro/devkitARM/bin/../lib/gcc/arm-none-eabi/4.9.2/../../../../arm-none-eabi/lib/armv6k/fpu/libg.a(lib_a-sprintf.o)
 .ARM.attributes
                0x00001ab6       0x32 /Users/spinal/devkitPro/devkitARM/bin/../lib/gcc/arm-none-eabi/4.9.2/../../../../arm-none-eabi/lib/armv6k/fpu/libg.a(lib_a-sscanf.o)
 .ARM.attributes
                0x00001ae8       0x32 /Users/spinal/devkitPro/devkitARM/bin/../lib/gcc/arm-none-eabi/4.9.2/../../../../arm-none-eabi/lib/armv6k/fpu/libg.a(lib_a-stdio.o)
 .ARM.attributes
                0x00001b1a       0x32 /Users/spinal/devkitPro/devkitARM/bin/../lib/gcc/arm-none-eabi/4.9.2/../../../../arm-none-eabi/lib/armv6k/fpu/libg.a(lib_a-stpcpy.o)
 .ARM.attributes
                0x00001b4c       0x32 /Users/spinal/devkitPro/devkitARM/bin/../lib/gcc/arm-none-eabi/4.9.2/../../../../arm-none-eabi/lib/armv6k/fpu/libg.a(lib_a-strcasecmp.o)
 .ARM.attributes
                0x00001b7e       0x32 /Users/spinal/devkitPro/devkitARM/bin/../lib/gcc/arm-none-eabi/4.9.2/../../../../arm-none-eabi/lib/armv6k/fpu/libg.a(lib_a-strchr.o)
 .ARM.attributes
                0x00001bb0       0x1a /Users/spinal/devkitPro/devkitARM/bin/../lib/gcc/arm-none-eabi/4.9.2/../../../../arm-none-eabi/lib/armv6k/fpu/libg.a(lib_a-strcmp.o)
 .ARM.attributes
                0x00001bca       0x32 /Users/spinal/devkitPro/devkitARM/bin/../lib/gcc/arm-none-eabi/4.9.2/../../../../arm-none-eabi/lib/armv6k/fpu/libg.a(lib_a-strcpy.o)
 .ARM.attributes
                0x00001bfc       0x32 /Users/spinal/devkitPro/devkitARM/bin/../lib/gcc/arm-none-eabi/4.9.2/../../../../arm-none-eabi/lib/armv6k/fpu/libg.a(lib_a-strlen.o)
 .ARM.attributes
                0x00001c2e       0x32 /Users/spinal/devkitPro/devkitARM/bin/../lib/gcc/arm-none-eabi/4.9.2/../../../../arm-none-eabi/lib/armv6k/fpu/libg.a(lib_a-strncat.o)
 .ARM.attributes
                0x00001c60       0x32 /Users/spinal/devkitPro/devkitARM/bin/../lib/gcc/arm-none-eabi/4.9.2/../../../../arm-none-eabi/lib/armv6k/fpu/libg.a(lib_a-strncmp.o)
 .ARM.attributes
                0x00001c92       0x32 /Users/spinal/devkitPro/devkitARM/bin/../lib/gcc/arm-none-eabi/4.9.2/../../../../arm-none-eabi/lib/armv6k/fpu/libg.a(lib_a-strncpy.o)
 .ARM.attributes
                0x00001cc4       0x32 /Users/spinal/devkitPro/devkitARM/bin/../lib/gcc/arm-none-eabi/4.9.2/../../../../arm-none-eabi/lib/armv6k/fpu/libg.a(lib_a-strtol.o)
 .ARM.attributes
                0x00001cf6       0x32 /Users/spinal/devkitPro/devkitARM/bin/../lib/gcc/arm-none-eabi/4.9.2/../../../../arm-none-eabi/lib/armv6k/fpu/libg.a(lib_a-svfprintf.o)
 .ARM.attributes
                0x00001d28       0x32 /Users/spinal/devkitPro/devkitARM/bin/../lib/gcc/arm-none-eabi/4.9.2/../../../../arm-none-eabi/lib/armv6k/fpu/libg.a(lib_a-svfscanf.o)
 .ARM.attributes
                0x00001d5a       0x32 /Users/spinal/devkitPro/devkitARM/bin/../lib/gcc/arm-none-eabi/4.9.2/../../../../arm-none-eabi/lib/armv6k/fpu/libg.a(lib_a-sysstat.o)
 .ARM.attributes
                0x00001d8c       0x32 /Users/spinal/devkitPro/devkitARM/bin/../lib/gcc/arm-none-eabi/4.9.2/../../../../arm-none-eabi/lib/armv6k/fpu/libg.a(lib_a-syswrite.o)
 .ARM.attributes
                0x00001dbe       0x32 /Users/spinal/devkitPro/devkitARM/bin/../lib/gcc/arm-none-eabi/4.9.2/../../../../arm-none-eabi/lib/armv6k/fpu/libg.a(lib_a-vfiprintf.o)
 .ARM.attributes
                0x00001df0       0x32 /Users/spinal/devkitPro/devkitARM/bin/../lib/gcc/arm-none-eabi/4.9.2/../../../../arm-none-eabi/lib/armv6k/fpu/libg.a(lib_a-vfprintf.o)
 .ARM.attributes
                0x00001e22       0x32 /Users/spinal/devkitPro/devkitARM/bin/../lib/gcc/arm-none-eabi/4.9.2/../../../../arm-none-eabi/lib/armv6k/fpu/libg.a(lib_a-vfscanf.o)
 .ARM.attributes
                0x00001e54       0x32 /Users/spinal/devkitPro/devkitARM/bin/../lib/gcc/arm-none-eabi/4.9.2/../../../../arm-none-eabi/lib/armv6k/fpu/libg.a(lib_a-wbuf.o)
 .ARM.attributes
                0x00001e86       0x32 /Users/spinal/devkitPro/devkitARM/bin/../lib/gcc/arm-none-eabi/4.9.2/../../../../arm-none-eabi/lib/armv6k/fpu/libg.a(lib_a-wcrtomb.o)
 .ARM.attributes
                0x00001eb8       0x32 /Users/spinal/devkitPro/devkitARM/bin/../lib/gcc/arm-none-eabi/4.9.2/../../../../arm-none-eabi/lib/armv6k/fpu/libg.a(lib_a-wcsrtombs.o)
 .ARM.attributes
                0x00001eea       0x32 /Users/spinal/devkitPro/devkitARM/bin/../lib/gcc/arm-none-eabi/4.9.2/../../../../arm-none-eabi/lib/armv6k/fpu/libg.a(lib_a-wctomb_r.o)
 .ARM.attributes
                0x00001f1c       0x32 /Users/spinal/devkitPro/devkitARM/bin/../lib/gcc/arm-none-eabi/4.9.2/../../../../arm-none-eabi/lib/armv6k/fpu/libg.a(lib_a-wsetup.o)
 .ARM.attributes
                0x00001f4e       0x32 /Users/spinal/devkitPro/devkitARM/bin/../lib/gcc/arm-none-eabi/4.9.2/../../../../arm-none-eabi/lib/armv6k/fpu/libg.a(lib_a-ctype_.o)
 .ARM.attributes
                0x00001f80       0x32 /Users/spinal/devkitPro/devkitARM/bin/../lib/gcc/arm-none-eabi/4.9.2/../../../../arm-none-eabi/lib/armv6k/fpu/libg.a(lib_a-dtoa.o)
 .ARM.attributes
                0x00001fb2       0x32 /Users/spinal/devkitPro/devkitARM/bin/../lib/gcc/arm-none-eabi/4.9.2/../../../../arm-none-eabi/lib/armv6k/fpu/libg.a(lib_a-flags.o)
 .ARM.attributes
                0x00001fe4       0x32 /Users/spinal/devkitPro/devkitARM/bin/../lib/gcc/arm-none-eabi/4.9.2/../../../../arm-none-eabi/lib/armv6k/fpu/libg.a(lib_a-fputwc.o)
 .ARM.attributes
                0x00002016       0x32 /Users/spinal/devkitPro/devkitARM/bin/../lib/gcc/arm-none-eabi/4.9.2/../../../../arm-none-eabi/lib/armv6k/fpu/libg.a(lib_a-iswspace.o)
 .ARM.attributes
                0x00002048       0x32 /Users/spinal/devkitPro/devkitARM/bin/../lib/gcc/arm-none-eabi/4.9.2/../../../../arm-none-eabi/lib/armv6k/fpu/libg.a(lib_a-jp2uc.o)
 .ARM.attributes
                0x0000207a       0x32 /Users/spinal/devkitPro/devkitARM/bin/../lib/gcc/arm-none-eabi/4.9.2/../../../../arm-none-eabi/lib/armv6k/fpu/libg.a(lib_a-locale.o)
 .ARM.attributes
                0x000020ac       0x32 /Users/spinal/devkitPro/devkitARM/bin/../lib/gcc/arm-none-eabi/4.9.2/../../../../arm-none-eabi/lib/armv6k/fpu/libg.a(lib_a-mbrtowc.o)
 .ARM.attributes
                0x000020de       0x32 /Users/spinal/devkitPro/devkitARM/bin/../lib/gcc/arm-none-eabi/4.9.2/../../../../arm-none-eabi/lib/armv6k/fpu/libg.a(lib_a-mbtowc_r.o)
 .ARM.attributes
                0x00002110       0x32 /Users/spinal/devkitPro/devkitARM/bin/../lib/gcc/arm-none-eabi/4.9.2/../../../../arm-none-eabi/lib/armv6k/fpu/libg.a(lib_a-mprec.o)
 .ARM.attributes
                0x00002142       0x32 /Users/spinal/devkitPro/devkitARM/bin/../lib/gcc/arm-none-eabi/4.9.2/../../../../arm-none-eabi/lib/armv6k/fpu/libg.a(lib_a-s_fpclassify.o)
 .ARM.attributes
                0x00002174       0x32 /Users/spinal/devkitPro/devkitARM/bin/../lib/gcc/arm-none-eabi/4.9.2/../../../../arm-none-eabi/lib/armv6k/fpu/libg.a(lib_a-s_frexp.o)
 .ARM.attributes
                0x000021a6       0x32 /Users/spinal/devkitPro/devkitARM/bin/../lib/gcc/arm-none-eabi/4.9.2/../../../../arm-none-eabi/lib/armv6k/fpu/libg.a(lib_a-sccl.o)
 .ARM.attributes
                0x000021d8       0x32 /Users/spinal/devkitPro/devkitARM/bin/../lib/gcc/arm-none-eabi/4.9.2/../../../../arm-none-eabi/lib/armv6k/fpu/libg.a(lib_a-sf_nan.o)
 .ARM.attributes
                0x0000220a       0x32 /Users/spinal/devkitPro/devkitARM/bin/../lib/gcc/arm-none-eabi/4.9.2/../../../../arm-none-eabi/lib/armv6k/fpu/libg.a(lib_a-stpncpy.o)
 .ARM.attributes
                0x0000223c       0x32 /Users/spinal/devkitPro/devkitARM/bin/../lib/gcc/arm-none-eabi/4.9.2/../../../../arm-none-eabi/lib/armv6k/fpu/libg.a(lib_a-strcat.o)
 .ARM.attributes
                0x0000226e       0x32 /Users/spinal/devkitPro/devkitARM/bin/../lib/gcc/arm-none-eabi/4.9.2/../../../../arm-none-eabi/lib/armv6k/fpu/libg.a(lib_a-strlcpy.o)
 .ARM.attributes
                0x000022a0       0x32 /Users/spinal/devkitPro/devkitARM/bin/../lib/gcc/arm-none-eabi/4.9.2/../../../../arm-none-eabi/lib/armv6k/fpu/libg.a(lib_a-strncasecmp.o)
 .ARM.attributes
                0x000022d2       0x32 /Users/spinal/devkitPro/devkitARM/bin/../lib/gcc/arm-none-eabi/4.9.2/../../../../arm-none-eabi/lib/armv6k/fpu/libg.a(lib_a-strtod.o)
 .ARM.attributes
                0x00002304       0x32 /Users/spinal/devkitPro/devkitARM/bin/../lib/gcc/arm-none-eabi/4.9.2/../../../../arm-none-eabi/lib/armv6k/fpu/libg.a(lib_a-strtoll_r.o)
 .ARM.attributes
                0x00002336       0x32 /Users/spinal/devkitPro/devkitARM/bin/../lib/gcc/arm-none-eabi/4.9.2/../../../../arm-none-eabi/lib/armv6k/fpu/libg.a(lib_a-strtoul.o)
 .ARM.attributes
                0x00002368       0x32 /Users/spinal/devkitPro/devkitARM/bin/../lib/gcc/arm-none-eabi/4.9.2/../../../../arm-none-eabi/lib/armv6k/fpu/libg.a(lib_a-strtoull_r.o)
 .ARM.attributes
                0x0000239a       0x32 /Users/spinal/devkitPro/devkitARM/bin/../lib/gcc/arm-none-eabi/4.9.2/../../../../arm-none-eabi/lib/armv6k/fpu/libg.a(lib_a-svfiprintf.o)
 .ARM.attributes
                0x000023cc       0x32 /Users/spinal/devkitPro/devkitARM/bin/../lib/gcc/arm-none-eabi/4.9.2/../../../../arm-none-eabi/lib/armv6k/fpu/libg.a(lib_a-svfiscanf.o)
 .ARM.attributes
                0x000023fe       0x32 /Users/spinal/devkitPro/devkitARM/bin/../lib/gcc/arm-none-eabi/4.9.2/../../../../arm-none-eabi/lib/armv6k/fpu/libg.a(lib_a-ungetc.o)
 .ARM.attributes
                0x00002430       0x32 /Users/spinal/devkitPro/devkitARM/bin/../lib/gcc/arm-none-eabi/4.9.2/../../../../arm-none-eabi/lib/armv6k/fpu/libg.a(lib_a-wcsnrtombs.o)
 .ARM.attributes
                0x00002462       0x32 /Users/spinal/devkitPro/devkitARM/bin/../lib/gcc/arm-none-eabi/4.9.2/../../../../arm-none-eabi/lib/armv6k/fpu/libg.a(lib_a-callocr.o)
 .ARM.attributes
                0x00002494       0x32 /Users/spinal/devkitPro/devkitARM/bin/../lib/gcc/arm-none-eabi/4.9.2/../../../../arm-none-eabi/lib/armv6k/fpu/libg.a(lib_a-gdtoa-gethex.o)
 .ARM.attributes
                0x000024c6       0x32 /Users/spinal/devkitPro/devkitARM/bin/../lib/gcc/arm-none-eabi/4.9.2/../../../../arm-none-eabi/lib/armv6k/fpu/libg.a(lib_a-gdtoa-hexnan.o)
 .ARM.attributes
                0x000024f8       0x32 /Users/spinal/devkitPro/devkitARM/bin/../lib/gcc/arm-none-eabi/4.9.2/../../../../arm-none-eabi/lib/armv6k/fpu/libg.a(lib_a-getenv_r.o)
 .ARM.attributes
                0x0000252a       0x32 /Users/spinal/devkitPro/devkitARM/bin/../lib/gcc/arm-none-eabi/4.9.2/../../../../arm-none-eabi/lib/armv6k/fpu/libg.a(lib_a-environ.o)
 .ARM.attributes
                0x0000255c       0x32 /Users/spinal/devkitPro/devkitARM/bin/../lib/gcc/arm-none-eabi/4.9.2/../../../../arm-none-eabi/lib/armv6k/fpu/libg.a(lib_a-envlock.o)
 .ARM.attributes
                0x0000258e       0x32 /Users/spinal/devkitPro/devkitARM/bin/../lib/gcc/arm-none-eabi/4.9.2/../../../../arm-none-eabi/lib/armv6k/fpu/libsysbase.a(iosupport.o)
 .ARM.attributes
                0x000025c0       0x32 /Users/spinal/devkitPro/devkitARM/bin/../lib/gcc/arm-none-eabi/4.9.2/../../../../arm-none-eabi/lib/armv6k/fpu/libsysbase.a(close.o)
 .ARM.attributes
                0x000025f2       0x32 /Users/spinal/devkitPro/devkitARM/bin/../lib/gcc/arm-none-eabi/4.9.2/../../../../arm-none-eabi/lib/armv6k/fpu/libsysbase.a(fstat.o)
 .ARM.attributes
                0x00002624       0x32 /Users/spinal/devkitPro/devkitARM/bin/../lib/gcc/arm-none-eabi/4.9.2/../../../../arm-none-eabi/lib/armv6k/fpu/libsysbase.a(getpid.o)
 .ARM.attributes
                0x00002656       0x32 /Users/spinal/devkitPro/devkitARM/bin/../lib/gcc/arm-none-eabi/4.9.2/../../../../arm-none-eabi/lib/armv6k/fpu/libsysbase.a(isatty.o)
 .ARM.attributes
                0x00002688       0x32 /Users/spinal/devkitPro/devkitARM/bin/../lib/gcc/arm-none-eabi/4.9.2/../../../../arm-none-eabi/lib/armv6k/fpu/libsysbase.a(kill.o)
 .ARM.attributes
                0x000026ba       0x32 /Users/spinal/devkitPro/devkitARM/bin/../lib/gcc/arm-none-eabi/4.9.2/../../../../arm-none-eabi/lib/armv6k/fpu/libsysbase.a(lseek.o)
 .ARM.attributes
                0x000026ec       0x32 /Users/spinal/devkitPro/devkitARM/bin/../lib/gcc/arm-none-eabi/4.9.2/../../../../arm-none-eabi/lib/armv6k/fpu/libsysbase.a(open.o)
 .ARM.attributes
                0x0000271e       0x32 /Users/spinal/devkitPro/devkitARM/bin/../lib/gcc/arm-none-eabi/4.9.2/../../../../arm-none-eabi/lib/armv6k/fpu/libsysbase.a(read.o)
 .ARM.attributes
                0x00002750       0x32 /Users/spinal/devkitPro/devkitARM/bin/../lib/gcc/arm-none-eabi/4.9.2/../../../../arm-none-eabi/lib/armv6k/fpu/libsysbase.a(sbrk.o)
 .ARM.attributes
                0x00002782       0x32 /Users/spinal/devkitPro/devkitARM/bin/../lib/gcc/arm-none-eabi/4.9.2/../../../../arm-none-eabi/lib/armv6k/fpu/libsysbase.a(stat.o)
 .ARM.attributes
                0x000027b4       0x32 /Users/spinal/devkitPro/devkitARM/bin/../lib/gcc/arm-none-eabi/4.9.2/../../../../arm-none-eabi/lib/armv6k/fpu/libsysbase.a(unlink.o)
 .ARM.attributes
                0x000027e6       0x32 /Users/spinal/devkitPro/devkitARM/bin/../lib/gcc/arm-none-eabi/4.9.2/../../../../arm-none-eabi/lib/armv6k/fpu/libsysbase.a(write.o)
 .ARM.attributes
                0x00002818       0x32 /Users/spinal/devkitPro/devkitARM/bin/../lib/gcc/arm-none-eabi/4.9.2/../../../../arm-none-eabi/lib/armv6k/fpu/libsysbase.a(_exit.o)
 .ARM.attributes
                0x0000284a       0x32 /Users/spinal/devkitPro/devkitARM/bin/../lib/gcc/arm-none-eabi/4.9.2/../../../../arm-none-eabi/lib/armv6k/fpu/libsysbase.a(malloc_vars.o)
 .ARM.attributes
                0x0000287c       0x32 /Users/spinal/devkitPro/devkitARM/bin/../lib/gcc/arm-none-eabi/4.9.2/../../../../arm-none-eabi/lib/armv6k/fpu/libsysbase.a(chdir.o)
 .ARM.attributes
                0x000028ae       0x32 /Users/spinal/devkitPro/devkitARM/bin/../lib/gcc/arm-none-eabi/4.9.2/../../../../arm-none-eabi/lib/armv6k/fpu/libsysbase.a(flock.o)
 .ARM.attributes
                0x000028e0       0x32 /Users/spinal/devkitPro/devkitARM/bin/../lib/gcc/arm-none-eabi/4.9.2/../../../../arm-none-eabi/lib/armv6k/fpu/libsysbase.a(syscall_support.o)
 .ARM.attributes
                0x00002912       0x32 /Users/spinal/devkitPro/devkitARM/bin/../lib/gcc/arm-none-eabi/4.9.2/../../../../arm-none-eabi/lib/armv6k/fpu/libsysbase.a(handle_manager.o)
 .ARM.attributes
                0x00002944       0x32 /Users/spinal/devkitPro/devkitARM/bin/../lib/gcc/arm-none-eabi/4.9.2/../../../../arm-none-eabi/lib/armv6k/fpu/libsysbase.a(dirent.o)
 .ARM.attributes
                0x00002976       0x32 /Users/spinal/devkitPro/devkitARM/bin/../lib/gcc/arm-none-eabi/4.9.2/../../../../arm-none-eabi/lib/armv6k/fpu/libsysbase.a(getreent.o)
 .ARM.attributes
                0x000029a8       0x1c /Users/spinal/devkitPro/devkitARM/bin/../lib/gcc/arm-none-eabi/4.9.2/armv6k/fpu/libgcc.a(_divsi3.o)
 .ARM.attributes
                0x000029c4       0x1c /Users/spinal/devkitPro/devkitARM/bin/../lib/gcc/arm-none-eabi/4.9.2/armv6k/fpu/libgcc.a(_aeabi_uldivmod.o)
 .ARM.attributes
                0x000029e0       0x32 /Users/spinal/devkitPro/devkitARM/bin/../lib/gcc/arm-none-eabi/4.9.2/armv6k/fpu/libgcc.a(bpabi.o)
 .ARM.attributes
                0x00002a12       0x32 /Users/spinal/devkitPro/devkitARM/bin/../lib/gcc/arm-none-eabi/4.9.2/armv6k/fpu/libgcc.a(_divdi3.o)
 .ARM.attributes
                0x00002a44       0x32 /Users/spinal/devkitPro/devkitARM/bin/../lib/gcc/arm-none-eabi/4.9.2/armv6k/fpu/libgcc.a(_udivdi3.o)
 .ARM.attributes
                0x00002a76       0x32 /Users/spinal/devkitPro/devkitARM/bin/../lib/gcc/arm-none-eabi/4.9.2/../../../../arm-none-eabi/lib/armv6k/fpu/libg.a(lib_a-errno.o)
 .ARM.attributes
                0x00002aa8       0x32 /Users/spinal/devkitPro/devkitARM/bin/../lib/gcc/arm-none-eabi/4.9.2/../../../../arm-none-eabi/lib/armv6k/fpu/libg.a(lib_a-strnlen.o)
 .ARM.attributes
                0x00002ada       0x32 /Users/spinal/devkitPro/devkitARM/bin/../lib/gcc/arm-none-eabi/4.9.2/../../../../arm-none-eabi/lib/armv6k/fpu/libg.a(lib_a-strrchr.o)
 .ARM.attributes
                0x00002b0c       0x32 /Users/spinal/devkitPro/devkitARM/bin/../lib/gcc/arm-none-eabi/4.9.2/armv6k/fpu/crtend.o
 .ARM.attributes
                0x00002b3e       0x1c /Users/spinal/devkitPro/devkitARM/bin/../lib/gcc/arm-none-eabi/4.9.2/armv6k/fpu/crtn.o

.debug_ranges   0x00000000     0x8140
 .debug_ranges  0x00000000      0x988 1541d64.o
 .debug_ranges  0x00000988       0xe8 1541job.o
 .debug_ranges  0x00000a70      0x408 1541t64.o
 .debug_ranges  0x00000e78      0x3a8 C64.o
 .debug_ranges  0x00001220      0x110 CIA.o
 .debug_ranges  0x00001330      0xec0 CPU1541.o
 .debug_ranges  0x000021f0     0x3de8 CPUC64.o
 .debug_ranges  0x00005fd8      0x268 Display.o
 .debug_ranges  0x00006240      0x1d0 IEC.o
 .debug_ranges  0x00006410       0xa8 Prefs.o
 .debug_ranges  0x000064b8       0x60 REU.o
 .debug_ranges  0x00006518      0xbf0 SAM.o
 .debug_ranges  0x00007108      0x160 SID.o
 .debug_ranges  0x00007268      0x660 VIC.o
 .debug_ranges  0x000078c8       0x88 main.o
 .debug_ranges  0x00007950       0x90 /Users/spinal/devkitPro/libctru/lib/libctru.a(gfx.o)
 .debug_ranges  0x000079e0       0xf0 /Users/spinal/devkitPro/libctru/lib/libctru.a(apt.o)
 .debug_ranges  0x00007ad0       0x60 /Users/spinal/devkitPro/libctru/lib/libctru.a(gsp.o)
 .debug_ranges  0x00007b30       0x18 /Users/spinal/devkitPro/libctru/lib/libctru.a(irrst.o)
 .debug_ranges  0x00007b48       0x70 /Users/spinal/devkitPro/libctru/lib/libctru.a(linear.o)
 .debug_ranges  0x00007bb8      0x1d8 /Users/spinal/devkitPro/libctru/lib/libctru.a(mem_pool.o)
 .debug_ranges  0x00007d90       0x78 /Users/spinal/devkitPro/libctru/lib/libctru.a(vram.o)
 .debug_ranges  0x00007e08       0x48 /Users/spinal/devkitPro/libctru/lib/libctru.a(os.o)
 .debug_ranges  0x00007e50       0x20 /Users/spinal/devkitPro/libctru/lib/libctru.a(rbtree_find.o)
 .debug_ranges  0x00007e70      0x110 /Users/spinal/devkitPro/libctru/lib/libctru.a(rbtree_insert.o)
 .debug_ranges  0x00007f80       0xf8 /Users/spinal/devkitPro/libctru/lib/libctru.a(rbtree_remove.o)
 .debug_ranges  0x00008078       0x30 /Users/spinal/devkitPro/libctru/lib/libctru.a(rbtree_rotate.o)
 .debug_ranges  0x000080a8       0x48 /Users/spinal/devkitPro/libctru/lib/libctru.a(sdmc_dev.o)
 .debug_ranges  0x000080f0       0x30 /Users/spinal/devkitPro/libctru/lib/libctru.a(rbtree_iterator.o)
 .debug_ranges  0x00008120       0x10 /Users/spinal/devkitPro/libctru/lib/libctru.a(decode_utf8.o)
 .debug_ranges  0x00008130       0x10 /Users/spinal/devkitPro/libctru/lib/libctru.a(decode_utf16.o)
